(dp1
S'output'
p2
S"<type 'exceptions.TypeError'> write() takes at least 2 arguments (1 given)"
p3
sS'layer'
p4
S'/Users/Liwen/Desktop/GroupOrder/applications/GroupOrder/views/default/singleOrders.html'
p5
sS'code'
p6
S'response.write(\'<!DOCTYPE html>\\n<!--[if (gt IE 9)|!(IE)]><!--> <html class="no-js" lang="\', escape=False)\nresponse.write(T.accepted_language or \'en\')\nresponse.write(\'"> <!--<![endif]-->\\n  <head>\\n    <meta charset="utf-8">\\n    <!-- www.phpied.com/conditional-comments-block-downloads/ -->\\n    <!-- Always force latest IE rendering engine\\n         (even in intranet) & Chrome Frame\\n         Remove this if you use the .htaccess -->\\n    <meta http-equiv="X-UA-Compatible" content="IE=edge\', escape=False)\nresponse.write(not request.is_local and \',chrome=1\' or \'\')\nresponse.write(\'">\\n    <!--  Mobile Viewport Fix\\n          j.mp/mobileviewport & davidbcalhoun.com/2010/viewport-metatag\\n          device-width: Occupy full width of the screen in its current orientation\\n          initial-scale = 1.0 retains dimensions instead of zooming out if page height > device height\\n          user-scalable = yes allows the user to zoom in -->\\n    <meta name="viewport" content="width=device-width, initial-scale=1.0">\\n    <title>\', escape=False)\nresponse.write(response.title or request.application)\nresponse.write(\'</title>\\n    <!-- http://dev.w3.org/html5/markup/meta.name.html -->\\n    <meta name="application-name" content="\', escape=False)\nresponse.write(request.application)\nresponse.write(\'">\\n    <!-- Speaking of Google, don\\\'t forget to set your site up:\\n         http://google.com/webmasters -->\\n    <meta name="google-site-verification" content="">\\n    <!-- include stylesheets -->\\n    <link rel="stylesheet" href="\', escape=False)\nresponse.write(URL(\'static\',\'css/bootstrap.min.css\'))\nresponse.write(\'"/>\\n    <link rel="stylesheet" href="\', escape=False)\nresponse.write(URL(\'static\',\'css/bootstrap-theme.min.css\'))\nresponse.write(\'"/>\\n    <link rel="stylesheet" href="\', escape=False)\nresponse.write(URL(\'static\',\'css/web2py-bootstrap3.css\'))\nresponse.write(\'"/>\\n    <link rel="stylesheet" href="\', escape=False)\nresponse.write(URL(\'static\',\'css/myapp.css\'))\nresponse.write(\'"/>\\n    <link rel="stylesheet" href="\', escape=False)\nresponse.write(URL(\'static\', \'font-awesome-4.4.0/css/font-awesome.min.css\'))\nresponse.write(\'"/>\\n    <link rel="shortcut icon" href="\', escape=False)\nresponse.write(URL(\'static\',\'images/favicon.ico\'))\nresponse.write(\'" type="image/x-icon">\\n    <link rel="apple-touch-icon" href="\', escape=False)\nresponse.write(URL(\'static\',\'images/favicon.png\'))\nresponse.write(\'">\\n    <!-- All JavaScript at the bottom, except for Modernizr which enables\\n         HTML5 elements & feature detects -->\\n    <script src="\', escape=False)\nresponse.write(URL(\'static\',\'js/modernizr-2.8.3.min.js\'))\nresponse.write(\'"></script>\\n    <!--[if lt IE 9]>\\n        <script src="\', escape=False)\nresponse.write(URL(\'static\',\'js/respond-1.4.2.min.js\'))\nresponse.write(\'"></script>\\n        <![endif]-->\\n    <!-- Favicons -->\\n    \', escape=False)\nresponse.write(\'<script type="text/javascript"><!--\\n    // These variables are used by the web2py_ajax_init function in web2py_ajax.js (which is loaded below).\\n    var w2p_ajax_confirm_message = "\', escape=False)\nresponse.write(T(\'Are you sure you want to delete this object?\'))\nresponse.write(\'";\\n    var w2p_ajax_disable_with_message = "\', escape=False)\nresponse.write(T(\'Working...\'))\nresponse.write(\'";\\n    var w2p_ajax_date_format = "\', escape=False)\nresponse.write(T(\'%Y-%m-%d\'))\nresponse.write(\'";\\n    var w2p_ajax_datetime_format = "\', escape=False)\nresponse.write(T(\'%Y-%m-%d %H:%M:%S\'))\nresponse.write(\'";\\n    var ajax_error_500 = \\\'\', escape=False)\nresponse.write(T.M(\'An error occured, please [[reload %s]] the page\') % URL(args=request.args, vars=request.get_vars))\nresponse.write("\'\\n    //--></script>\\n", escape=False)\nresponse.files.insert(0,URL(\'static\',\'js/jquery.js\'))\nresponse.files.insert(1,URL(\'static\',\'css/calendar.css\'))\nresponse.files.insert(2,URL(\'static\',\'js/calendar.js\'))\nresponse.files.insert(3,URL(\'static\',\'js/web2py.js\'))\nresponse.include_meta()\nresponse.include_files()\nresponse.write(\'\\n\', escape=False)\nresponse.write(\' <!-- this includes jquery.js, calendar.js/.css and web2py.js -->\\n    \', escape=False)\nresponse.write(\'\\n    \', escape=False)\n# using sidebars need to know what sidebar you want to use\nmc0 = \'col-md-12\'\nmc1 = \'col-md-9\'\nmc2 = \'col-md-6\'\nleft_sidebar_enabled = globals().get(\'left_sidebar_enabled\', False)\nright_sidebar_enabled = globals().get(\'right_sidebar_enabled\', False)\nmiddle_column = {0: mc0, 1: mc1, 2: mc2}[\n(left_sidebar_enabled and 1 or 0)+(right_sidebar_enabled and 1 or 0)]\nresponse.write(\'\\n  </head>\\n  <body>\\n    <!--[if lt IE 8]><p class="browserupgrade">You are using an <strong>outdated</strong> browser. Please <a href="http://browsehappy.com/">upgrade your browser</a> to improve your experience.</p><![endif]-->\\n    <div class="flash alert alert-dismissable">\', escape=False)\nresponse.write(response.flash or \'\')\nresponse.write(\'</div>\\n    <!-- Navbar ======================================= -->\\n    <nav class="navbar navbar-inverse navbar-fixed-top" role="navigation">\\n      <div class="container-fluid">\\n        <div class="navbar-header">\\n          <button type="button" class="navbar-toggle" data-toggle="collapse" data-target=".navbar-collapse">\\n            <span class="sr-only">Toggle navigation</span>\\n            <span class="icon-bar"></span>\\n            <span class="icon-bar"></span>\\n            <span class="icon-bar"></span>\\n          </button>\\n          \', escape=False)\nresponse.write(response.logo or \'\')\nresponse.write(\'\\n        </div>\\n        <div class="collapse navbar-collapse navbar-ex1-collapse">\\n          <ul class="nav navbar-nav navbar-right">\\n            \', escape=False)\nresponse.write(\'auth\' in globals() and auth.navbar(\'Welcome\',mode=\'dropdown\') or \'\')\nresponse.write(\'\\n          </ul>\\n          \', escape=False)\nif response.menu:\n    response.write(\'\\n          \', escape=False)\n    response.write(MENU(response.menu, _class=\'nav navbar-nav\',li_class=\'dropdown\',ul_class=\'dropdown-menu\'))\n    response.write(\'\\n          \', escape=False)\n    pass\nresponse.write(\'\\n        </div>\\n      </div>\\n    </nav>\\n    <!-- Masthead ===================================== -->\\n    \', escape=False)\nresponse.write(\'\\n    \', escape=False)\nresponse.write(\'\\n    <!-- Main ========================================= -->\\n    <!-- Begin page content -->\\n    <br>\\n    <br>\\n    <br>\\n    <div class="container-fluid main-container">\\n      \', escape=False)\nif left_sidebar_enabled:\n    response.write(\'\\n        <div class="col-md-3 left-sidebar">\\n            \', escape=False)\n    response.write(\'\\n            <h3>Left Sidebar</h3>\\n            <p></p>\\n            \', escape=False)\n    response.write(\'\\n        </div>\\n      \', escape=False)\n    pass\nresponse.write(\'\\n\\n      <div class="\', escape=False)\nresponse.write(middle_column)\nresponse.write(\'">\\n        \', escape=False)\nresponse.write(\'\\n        \', escape=False)\nresponse.write(\'\\n\\n<div id="target"></div>\\n\\n\\n<script id="template" type="text/ractive">\\n\\n<div>\\n    \', escape=False)\nif auth.user_id is None:\n    response.write(\'\\n    <div id="main_login">\\n    \', escape=False)\n    response.write(A(\'Sign Up\', _class=\'btn btn-primary btn-lg\', _href=URL(\'default\', \'user\', args=[\'register\'])))\n    response.write(\'\\n    \', escape=False)\n    response.write(A(\'Sign In\', _class=\'btn btn-primary btn-lg\', _href=URL(\'default\', \'user\', args=[\'login\'])))\n    response.write(\'\\n    </div>\\n    \', escape=False)\n    pass\nresponse.write(\'\\n    {% #if loading %}\\n    <div id="load_spinner">\\n    <i class="fa fa-spinner fa-pulse fa-2x"></i>\\n    </div>\\n    {% /if %}\\n</div>\\n<br><br>\\n\\n<div class="container-fluid">\\n  <div class="row">\\n\\n<table class="table table-bordered" id="myTable">\\n  <thead>\\n      <tr>\\n        <th class="col-md-1">#</th>\\n        <th class="col-md-9">Item</th>\\n        <th class="col-md-1">Price</th>\\n        <th class="col-md-1">Quantity</th>\\n      </tr>\\n  </thead>\\n  <tbody>\\n      {% #displayMenuDetail:id %}\\n      <tr>\\n        <td class="itemIdData">{% itemId %}</td>\\n        <td class="itemNameData">{% itemName %}</td>\\n        <td class="itemPriceData">{% itemPrice %}</td>\\n        <td><div class="input-group">\\n            <input type="number" class="form-control" id="itemQuantityData" placeholder="0"></div>\\n        </td>\\n      </tr>\\n      {% /displayMenuDetail %}\\n  <tbody>\\n</table>\\n<div>Total:&nbsp;$&nbsp;</div>\\n\\n<button type="button" class="btn btn-primary btn-lg" on-click="submitOrder">Submit</button>\\n\\n\\n\\n\\n  </div>\\n</div>\\n\\n\\n</script>\\n\\n\\n<script>\\n\\n$(document).ready(function () {\\n\\n    var ractive = new Ractive({\\n        el: \\\'#target\\\',\\n        template: \\\'#template\\\',\\n        delimiters: [\\\'{%\\\', \\\'%}\\\'],\\n        tripleDelimiters: [\\\'{%%\\\', \\\'%%}\\\'],\\n        data: {\\n            loading: true,\\n            menuId: "\', escape=False)\nresponse.write(menuId)\nresponse.write(\'",\\n            displayMenuDetail: {},\\n//            singleOrderCreator: "\', escape=False)\nresponse.write(auth.user_id)\nresponse.write(\'",\\n//            orderId: "\', escape=False)\nresponse.write()\nresponse.write(\'",\\n\\n\\n\\n        }\\n    });\\n\\n\\n\\n    $.ajax("\', escape=False)\nresponse.write(URL(\'default\', \'getMenuDetail\', user_signature=True))\nresponse.write(\'",\\n        {\\n            data: {\\n                menuId: ractive.get(\\\'menuId\\\'),\\n            },\\n            method: \\\'POST\\\',\\n            success: function (data) {\\n                ractive.set(\\\'displayMenuDetail\\\', data[\\\'displayMenuDetail\\\']);\\n                ractive.set(\\\'loading\\\', false);\\n            }\\n        }\\n    );\\n\\n    ractive.on("submitOrder", function() {\\n        var nameArray = [];\\n        var priceArray = [];\\n        var inputArray = [];\\n\\n        $("input").each(function() {\\n            inputArray.push($(this).val());\\n        });\\n\\n        $(".itemNameData").each(function() {\\n            nameArray.push($(this).html());\\n        });\\n\\n        $(".itemPriceData").each(function() {\\n            priceArray.push($(this).html());\\n        });\\n\\n//        alert(nameArray[1]);\\n//        alert(inputArray[1]);\\n//        alert(priceArray[1]);\\n//          alert((inputArray[0]*priceArray[0]));\\n//\\n//        $.ajax("\', escape=False)\nresponse.write(URL(\'default\', \'addSingleOrders\', user_signature=True))\nresponse.write(\'",\\n//        {\\n//            data: {\\n//                itemName1: nameArray[0],\\n//                itemPrice1: priceArray[0],\\n//                itemQuantity1: inputArray[0],\\n//                itemName2: nameArray[1],\\n//                itemPrice2: priceArray[1],\\n//                itemQuantity2: inputArray[1],\\n//                itemName3: nameArray[2],\\n//                itemPrice3: priceArray[2],\\n////                itemQuantity3: inputArray[2],\\n////                groupId: ractive.get(\\\'groupId\\\'),\\n////                menuCreator: ractive.get(\\\'menuCreator\\\'),\\n//            },\\n//            method: \\\'POST\\\',\\n//            success: function () {\\n//            },\\n//            error: function () {\\n//            }\\n//        });\\n\\n    });\\n\\n\\n\\n\\n\\n\\n\\n\\n\\n\\n});\\n</script>\\n\\n\\n\\n\\n\', escape=False)\nresponse.write(\'\\n        \', escape=False)\nresponse.write(\'\\n      </div>\\n\\n      \', escape=False)\nif right_sidebar_enabled:\n    response.write(\'\\n        <div class="col-md-3">\\n            \', escape=False)\n    response.write(\'\\n            <h3>Right Sidebar</h3>\\n            <p></p>\\n            \', escape=False)\n    response.write(\'\\n        </div>\\n      \', escape=False)\n    pass\nresponse.write(\'\\n\\n    </div>\\n\\n\\n    <!-- The javascript =============================== -->\\n    <script src="\', escape=False)\nresponse.write(URL(\'static\',\'js/bootstrap.min.js\'))\nresponse.write(\'"></script>\\n    <script src="\', escape=False)\nresponse.write(URL(\'static\',\'js/web2py-bootstrap3.js\'))\nresponse.write(\'"></script>\\n    <script src=\\\'http://cdn.ractivejs.org/latest/ractive.min.js\\\'></script>\\n\\n\\n    <script type="text/javascript" src="\', escape=False)\nresponse.write(URL(\'static\',\'js/moment.js\'))\nresponse.write(\'"></script>\\n    <script type="text/javascript" src="\', escape=False)\nresponse.write(URL(\'static\',\'js/transition.js\'))\nresponse.write(\'"></script>\\n    <script type="text/javascript" src="\', escape=False)\nresponse.write(URL(\'static\',\'js/collapse.js\'))\nresponse.write(\'"></script>\\n    <script type="text/javascript" src="\', escape=False)\nresponse.write(URL(\'static\',\'js/bootstrap-datetimepicker.min.js\'))\nresponse.write(\'"></script>\\n    <link rel="stylesheet" href="\', escape=False)\nresponse.write(URL(\'static\',\'css/bootstrap-datetimepicker.min.css\'))\nresponse.write(\'"/>\\n\\n\\n    \', escape=False)\nresponse.write(\'\\n    \', escape=False)\nif response.google_analytics_id:\n    response.write(\'\\n    <!-- Analytics ==================================== -->\\n    <script src="\', escape=False)\n    response.write(URL(\'static\',\'js/analytics.min.js\'))\n    response.write(\'"></script>\\n    <script type="text/javascript">\\n      analytics.initialize({\\n      \\\'Google Analytics\\\':{trackingId:\\\'\', escape=False)\n    response.write(response.google_analytics_id)\n    response.write("\'}\\n      });\\n    </script>\\n    ", escape=False)\n    pass\nresponse.write(\'\\n    <!-- Share ============================y============ -->\\n    <script src="\', escape=False)\nresponse.write(URL(\'static\',\'js/share.js\',vars=dict(static=URL(\'static\',\'images\'))))\nresponse.write(\'"></script>\\n  </body>\\n</html>\\n\', escape=False)'
p7
sS'snapshot'
p8
(dp9
S'exception'
p10
(dp11
S'__hash__'
p12
S"<method-wrapper '__hash__' of exceptions.TypeError object>"
p13
sS'__setattr__'
p14
S"<method-wrapper '__setattr__' of exceptions.TypeError object>"
p15
sS'__reduce_ex__'
p16
S'<built-in method __reduce_ex__ of exceptions.TypeError object>'
p17
sS'__getslice__'
p18
S"<method-wrapper '__getslice__' of exceptions.TypeError object>"
p19
sS'__getitem__'
p20
S"<method-wrapper '__getitem__' of exceptions.TypeError object>"
p21
sS'__setstate__'
p22
S'<built-in method __setstate__ of exceptions.TypeError object>'
p23
sS'args'
p24
S"('write() takes at least 2 arguments (1 given)',)"
p25
sS'__reduce__'
p26
S'<built-in method __reduce__ of exceptions.TypeError object>'
p27
sS'__str__'
p28
S"<method-wrapper '__str__' of exceptions.TypeError object>"
p29
sS'__format__'
p30
S'<built-in method __format__ of exceptions.TypeError object>'
p31
sS'__getattribute__'
p32
S"<method-wrapper '__getattribute__' of exceptions.TypeError object>"
p33
sS'__class__'
p34
S"<type 'exceptions.TypeError'>"
p35
sS'__unicode__'
p36
S'<built-in method __unicode__ of exceptions.TypeError object>'
p37
sS'__delattr__'
p38
S"<method-wrapper '__delattr__' of exceptions.TypeError object>"
p39
sS'__subclasshook__'
p40
S'<built-in method __subclasshook__ of type object>'
p41
sS'__repr__'
p42
S"<method-wrapper '__repr__' of exceptions.TypeError object>"
p43
sS'__dict__'
p44
S'{}'
p45
sS'__sizeof__'
p46
S'<built-in method __sizeof__ of exceptions.TypeError object>'
p47
sS'__doc__'
p48
S"'Inappropriate argument type.'"
p49
sS'__init__'
p50
S"<method-wrapper '__init__' of exceptions.TypeError object>"
p51
sS'__new__'
p52
S'<built-in method __new__ of type object>'
p53
ssS'evalue'
p54
S'write() takes at least 2 arguments (1 given)'
p55
sS'request'
p56
cgluon.html
XML_unpickle
p57
(S'sM]\x00\x00<div><table><tr><td style="font-weight:bold;vertical-align:top;">ajax</td><td style="vertical-align:top;">:</td><td><div>False</div></td></tr><tr><td style="font-weight:bold;vertical-align:top;">application</td><td style="vertical-align:top;">:</td><td><div>GroupOrder</div></td></tr><tr><td style="font-weight:bold;vertical-align:top;">args</td><td style="vertical-align:top;">:</td><td><div><table><tr><td><div>88</div></td></tr></table></div></td></tr><tr><td style="font-weight:bold;vertical-align:top;">cid</td><td style="vertical-align:top;">:</td><td><div>None</div></td></tr><tr><td style="font-weight:bold;vertical-align:top;">client</td><td style="vertical-align:top;">:</td><td><div>127.0.0.1</div></td></tr><tr><td style="font-weight:bold;vertical-align:top;">controller</td><td style="vertical-align:top;">:</td><td><div>default</div></td></tr><tr><td style="font-weight:bold;vertical-align:top;">cookies</td><td style="vertical-align:top;">:</td><td><div><table><tr><td style="font-weight:bold;vertical-align:top;">session_id_admin</td><td style="vertical-align:top;">:</td><td><div>127.0.0.1-732d896f-2f4b-4de4-b004-ae4ead3c34ab<table><tr><td style="font-weight:bold;vertical-align:top;">comment</td><td style="vertical-align:top;">:</td><td><div></div></td></tr><tr><td style="font-weight:bold;vertical-align:top;">domain</td><td style="vertical-align:top;">:</td><td><div></div></td></tr><tr><td style="font-weight:bold;vertical-align:top;">expires</td><td style="vertical-align:top;">:</td><td><div></div></td></tr><tr><td style="font-weight:bold;vertical-align:top;">httponly</td><td style="vertical-align:top;">:</td><td><div></div></td></tr><tr><td style="font-weight:bold;vertical-align:top;">max-age</td><td style="vertical-align:top;">:</td><td><div></div></td></tr><tr><td style="font-weight:bold;vertical-align:top;">path</td><td style="vertical-align:top;">:</td><td><div></div></td></tr><tr><td style="font-weight:bold;vertical-align:top;">secure</td><td style="vertical-align:top;">:</td><td><div></div></td></tr><tr><td style="font-weight:bold;vertical-align:top;">version</td><td style="vertical-align:top;">:</td><td><div></div></td></tr></table></div></td></tr><tr><td style="font-weight:bold;vertical-align:top;">session_id_grouporder</td><td style="vertical-align:top;">:</td><td><div>127.0.0.1-48682d78-8f38-4fc4-9a18-b8a70f7c3a90<table><tr><td style="font-weight:bold;vertical-align:top;">comment</td><td style="vertical-align:top;">:</td><td><div></div></td></tr><tr><td style="font-weight:bold;vertical-align:top;">domain</td><td style="vertical-align:top;">:</td><td><div></div></td></tr><tr><td style="font-weight:bold;vertical-align:top;">expires</td><td style="vertical-align:top;">:</td><td><div></div></td></tr><tr><td style="font-weight:bold;vertical-align:top;">httponly</td><td style="vertical-align:top;">:</td><td><div></div></td></tr><tr><td style="font-weight:bold;vertical-align:top;">max-age</td><td style="vertical-align:top;">:</td><td><div></div></td></tr><tr><td style="font-weight:bold;vertical-align:top;">path</td><td style="vertical-align:top;">:</td><td><div></div></td></tr><tr><td style="font-weight:bold;vertical-align:top;">secure</td><td style="vertical-align:top;">:</td><td><div></div></td></tr><tr><td style="font-weight:bold;vertical-align:top;">version</td><td style="vertical-align:top;">:</td><td><div></div></td></tr></table></div></td></tr><tr><td style="font-weight:bold;vertical-align:top;">session_id_welcome</td><td style="vertical-align:top;">:</td><td><div>127.0.0.1-1775a65e-9206-4c89-857a-d971d71ef9a1<table><tr><td style="font-weight:bold;vertical-align:top;">comment</td><td style="vertical-align:top;">:</td><td><div></div></td></tr><tr><td style="font-weight:bold;vertical-align:top;">domain</td><td style="vertical-align:top;">:</td><td><div></div></td></tr><tr><td style="font-weight:bold;vertical-align:top;">expires</td><td style="vertical-align:top;">:</td><td><div></div></td></tr><tr><td style="font-weight:bold;vertical-align:top;">httponly</td><td style="vertical-align:top;">:</td><td><div></div></td></tr><tr><td style="font-weight:bold;vertical-align:top;">max-age</td><td style="vertical-align:top;">:</td><td><div></div></td></tr><tr><td style="font-weight:bold;vertical-align:top;">path</td><td style="vertical-align:top;">:</td><td><div></div></td></tr><tr><td style="font-weight:bold;vertical-align:top;">secure</td><td style="vertical-align:top;">:</td><td><div></div></td></tr><tr><td style="font-weight:bold;vertical-align:top;">version</td><td style="vertical-align:top;">:</td><td><div></div></td></tr></table></div></td></tr></table></div></td></tr><tr><td style="font-weight:bold;vertical-align:top;">env</td><td style="vertical-align:top;">:</td><td><div><table><tr><td style="font-weight:bold;vertical-align:top;">HTTP_ACCEPT</td><td style="vertical-align:top;">:</td><td><div>text/html,application/xhtml+xml,application/xml;q=0.9,*/*;q=0.8</div></td></tr><tr><td style="font-weight:bold;vertical-align:top;">HTTP_ACCEPT_ENCODING</td><td style="vertical-align:top;">:</td><td><div>gzip, deflate</div></td></tr><tr><td style="font-weight:bold;vertical-align:top;">HTTP_ACCEPT_LANGUAGE</td><td style="vertical-align:top;">:</td><td><div>en-us</div></td></tr><tr><td style="font-weight:bold;vertical-align:top;">HTTP_CACHE_CONTROL</td><td style="vertical-align:top;">:</td><td><div>max-age=0</div></td></tr><tr><td style="font-weight:bold;vertical-align:top;">HTTP_CONNECTION</td><td style="vertical-align:top;">:</td><td><div>keep-alive</div></td></tr><tr><td style="font-weight:bold;vertical-align:top;">HTTP_COOKIE</td><td style="vertical-align:top;">:</td><td><div>session_id_admin=127.0.0.1-732d896f-2f4b-4de4-b004-ae4ead3c34ab; session_id_grouporder=127.0.0.1-48682d78-8f38-4fc4-9a18-b8a70f7c3a90; session_id_welcome=127.0.0.1-1775a65e-9206-4c89-857a-d971d71ef9a1</div></td></tr><tr><td style="font-weight:bold;vertical-align:top;">HTTP_HOST</td><td style="vertical-align:top;">:</td><td><div>127.0.0.1:8000</div></td></tr><tr><td style="font-weight:bold;vertical-align:top;">HTTP_REFERER</td><td style="vertical-align:top;">:</td><td><div>http://127.0.0.1:8000/GroupOrder/default/groupOrders/17</div></td></tr><tr><td style="font-weight:bold;vertical-align:top;">HTTP_USER_AGENT</td><td style="vertical-align:top;">:</td><td><div>Mozilla/5.0 (Macintosh; Intel Mac OS X 10_11_1) AppleWebKit/601.2.7 (KHTML, like Gecko) Version/9.0.1 Safari/601.2.7</div></td></tr><tr><td style="font-weight:bold;vertical-align:top;">PATH_INFO</td><td style="vertical-align:top;">:</td><td><div>/GroupOrder/default/singleOrders/88</div></td></tr><tr><td style="font-weight:bold;vertical-align:top;">QUERY_STRING</td><td style="vertical-align:top;">:</td><td><div></div></td></tr><tr><td style="font-weight:bold;vertical-align:top;">REMOTE_ADDR</td><td style="vertical-align:top;">:</td><td><div>127.0.0.1</div></td></tr><tr><td style="font-weight:bold;vertical-align:top;">REMOTE_PORT</td><td style="vertical-align:top;">:</td><td><div>49622</div></td></tr><tr><td style="font-weight:bold;vertical-align:top;">REQUEST_METHOD</td><td style="vertical-align:top;">:</td><td><div>GET</div></td></tr><tr><td style="font-weight:bold;vertical-align:top;">SCRIPT_NAME</td><td style="vertical-align:top;">:</td><td><div></div></td></tr><tr><td style="font-weight:bold;vertical-align:top;">SERVER_NAME</td><td style="vertical-align:top;">:</td><td><div>dhcp-169-233-150-194.cruznet.ucsc.edu</div></td></tr><tr><td style="font-weight:bold;vertical-align:top;">SERVER_PORT</td><td style="vertical-align:top;">:</td><td><div>8000</div></td></tr><tr><td style="font-weight:bold;vertical-align:top;">SERVER_PROTOCOL</td><td style="vertical-align:top;">:</td><td><div>HTTP/1.1</div></td></tr><tr><td style="font-weight:bold;vertical-align:top;">SERVER_SOFTWARE</td><td style="vertical-align:top;">:</td><td><div>Rocket 1.2.6</div></td></tr><tr><td style="font-weight:bold;vertical-align:top;">app_folders</td><td style="vertical-align:top;">:</td><td><div>set([&#x27;/Users/Liwen/Desktop/GroupOrder/applications/welcome/&#x27;, &#x27;/Users/Liwen/Desktop/GroupOrder/applications/GroupOrder/&#x27;, &#x27;/Users/Liwen/Desktop/GroupOrder/applications/admin/&#x27;])</div></td></tr><tr><td style="font-weight:bold;vertical-align:top;">applications_parent</td><td style="vertical-align:top;">:</td><td><div>/Users/Liwen/Desktop/GroupOrder</div></td></tr><tr><td style="font-weight:bold;vertical-align:top;">cmd_args</td><td style="vertical-align:top;">:</td><td><div><table></table></div></td></tr><tr><td style="font-weight:bold;vertical-align:top;">cmd_options</td><td style="vertical-align:top;">:</td><td><div>&lt;Values at 0x10fe32368: {&#x27;verbose&#x27;: False, &#x27;ip&#x27;: &#x27;127.0.0.1&#x27;, &#x27;debuglevel&#x27;: 30, &#x27;with_scheduler&#x27;: False, &#x27;ips&#x27;: [&#x27;169.233.150.194&#x27;], &#x27;shutdown_timeout&#x27;: 5, &#x27;taskbar&#x27;: False, &#x27;with_coverage&#x27;: False, &#x27;scheduler_groups&#x27;: None, &#x27;port&#x27;: 8000, &#x27;maxthreads&#x27;: None, &#x27;softcron&#x27;: False, &#x27;server_name&#x27;: &#x27;dhcp-169-233-150-194.cruznet.ucsc.edu&#x27;, &#x27;bpython&#x27;: False, &#x27;nogui&#x27;: False, &#x27;pid_filename&#x27;: &#x27;httpserver.pid&#x27;, &#x27;print_errors&#x27;: False, &#x27;extcron&#x27;: False, &#x27;runcron&#x27;: False, &#x27;run_system_tests&#x27;: False, &#x27;test&#x27;: None, &#x27;folder&#x27;: &#x27;/Users/Liwen/Desktop/GroupOrder&#x27;, &#x27;config&#x27;: &#x27;&#x27;, &#x27;minthreads&#x27;: None, &#x27;shell&#x27;: None, &#x27;run&#x27;: &#x27;&#x27;, &#x27;log_filename&#x27;: &#x27;httpserver.log&#x27;, &#x27;profiler_dir&#x27;: None, &#x27;args&#x27;: [&#x27;&#x27;], &#x27;socket_timeout&#x27;: 5, &#x27;ssl_ca_certificate&#x27;: None, &#x27;scheduler&#x27;: None, &#x27;interfaces&#x27;: None, &#x27;ssl_private_key&#x27;: &#x27;&#x27;, &#x27;gae&#x27;: None, &#x27;password&#x27;: &#x27;&lt;ask&gt;&#x27;, &#x27;request_queue_size&#x27;: 5, &#x27;ssl_certificate&#x27;: &#x27;&#x27;, &#x27;cronjob&#x27;: False, &#x27;numthreads&#x27;: None, &#x27;quiet&#x27;: False, &#x27;import_models&#x27;: False, &#x27;timeout&#x27;: 10, &#x27;plain&#x27;: False, &#x27;nobanner&#x27;: False}&gt;</div></td></tr><tr><td style="font-weight:bold;vertical-align:top;">db_sessions</td><td style="vertical-align:top;">:</td><td><div>set([])</div></td></tr><tr><td style="font-weight:bold;vertical-align:top;">debugging</td><td style="vertical-align:top;">:</td><td><div>False</div></td></tr><tr><td style="font-weight:bold;vertical-align:top;">gluon_parent</td><td style="vertical-align:top;">:</td><td><div>/Users/Liwen/Desktop/GroupOrder</div></td></tr><tr><td style="font-weight:bold;vertical-align:top;">http_accept</td><td style="vertical-align:top;">:</td><td><div>text/html,application/xhtml+xml,application/xml;q=0.9,*/*;q=0.8</div></td></tr><tr><td style="font-weight:bold;vertical-align:top;">http_accept_encoding</td><td style="vertical-align:top;">:</td><td><div>gzip, deflate</div></td></tr><tr><td style="font-weight:bold;vertical-align:top;">http_accept_language</td><td style="vertical-align:top;">:</td><td><div>en-us</div></td></tr><tr><td style="font-weight:bold;vertical-align:top;">http_cache_control</td><td style="vertical-align:top;">:</td><td><div>max-age=0</div></td></tr><tr><td style="font-weight:bold;vertical-align:top;">http_connection</td><td style="vertical-align:top;">:</td><td><div>keep-alive</div></td></tr><tr><td style="font-weight:bold;vertical-align:top;">http_cookie</td><td style="vertical-align:top;">:</td><td><div>session_id_admin=127.0.0.1-732d896f-2f4b-4de4-b004-ae4ead3c34ab; session_id_grouporder=127.0.0.1-48682d78-8f38-4fc4-9a18-b8a70f7c3a90; session_id_welcome=127.0.0.1-1775a65e-9206-4c89-857a-d971d71ef9a1</div></td></tr><tr><td style="font-weight:bold;vertical-align:top;">http_host</td><td style="vertical-align:top;">:</td><td><div>127.0.0.1:8000</div></td></tr><tr><td style="font-weight:bold;vertical-align:top;">http_referer</td><td style="vertical-align:top;">:</td><td><div>http://127.0.0.1:8000/GroupOrder/default/groupOrders/17</div></td></tr><tr><td style="font-weight:bold;vertical-align:top;">http_user_agent</td><td style="vertical-align:top;">:</td><td><div>Mozilla/5.0 (Macintosh; Intel Mac OS X 10_11_1) AppleWebKit/601.2.7 (KHTML, like Gecko) Version/9.0.1 Safari/601.2.7</div></td></tr><tr><td style="font-weight:bold;vertical-align:top;">is_jython</td><td style="vertical-align:top;">:</td><td><div>False</div></td></tr><tr><td style="font-weight:bold;vertical-align:top;">is_pypy</td><td style="vertical-align:top;">:</td><td><div>False</div></td></tr><tr><td style="font-weight:bold;vertical-align:top;">is_source</td><td style="vertical-align:top;">:</td><td><div>True</div></td></tr><tr><td style="font-weight:bold;vertical-align:top;">local_hosts</td><td style="vertical-align:top;">:</td><td><div><table><tr><td><div>::1</div></td></tr><tr><td><div>169.233.150.194</div></td></tr><tr><td><div>::ffff:127.0.0.1</div></td></tr><tr><td><div>127.0.0.1</div></td></tr><tr><td><div>dhcp-169-233-150-194.cruznet.ucsc.edu</div></td></tr></table></div></td></tr><tr><td style="font-weight:bold;vertical-align:top;">path_info</td><td style="vertical-align:top;">:</td><td><div>/GroupOrder/default/singleOrders/88</div></td></tr><tr><td style="font-weight:bold;vertical-align:top;">query_string</td><td style="vertical-align:top;">:</td><td><div></div></td></tr><tr><td style="font-weight:bold;vertical-align:top;">remote_addr</td><td style="vertical-align:top;">:</td><td><div>127.0.0.1</div></td></tr><tr><td style="font-weight:bold;vertical-align:top;">remote_port</td><td style="vertical-align:top;">:</td><td><div>49622</div></td></tr><tr><td style="font-weight:bold;vertical-align:top;">request_method</td><td style="vertical-align:top;">:</td><td><div>GET</div></td></tr><tr><td style="font-weight:bold;vertical-align:top;">request_uri</td><td style="vertical-align:top;">:</td><td><div>/GroupOrder/default/singleOrders/88</div></td></tr><tr><td style="font-weight:bold;vertical-align:top;">script_name</td><td style="vertical-align:top;">:</td><td><div></div></td></tr><tr><td style="font-weight:bold;vertical-align:top;">server_name</td><td style="vertical-align:top;">:</td><td><div>dhcp-169-233-150-194.cruznet.ucsc.edu</div></td></tr><tr><td style="font-weight:bold;vertical-align:top;">server_port</td><td style="vertical-align:top;">:</td><td><div>8000</div></td></tr><tr><td style="font-weight:bold;vertical-align:top;">server_protocol</td><td style="vertical-align:top;">:</td><td><div>HTTP/1.1</div></td></tr><tr><td style="font-weight:bold;vertical-align:top;">server_software</td><td style="vertical-align:top;">:</td><td><div>Rocket 1.2.6</div></td></tr><tr><td style="font-weight:bold;vertical-align:top;">web2py_path</td><td style="vertical-align:top;">:</td><td><div>/Users/Liwen/Desktop/GroupOrder</div></td></tr><tr><td style="font-weight:bold;vertical-align:top;">web2py_version</td><td style="vertical-align:top;">:</td><td><div>2.12.3-stable+timestamp.2015.08.19.00.18.03</div></td></tr><tr><td style="font-weight:bold;vertical-align:top;">wsgi.errors</td><td style="vertical-align:top;">:</td><td><div>&lt;open file &#x27;&lt;stderr&gt;&#x27;, mode &#x27;w&#x27; at 0x10e65c1e0&gt;</div></td></tr><tr><td style="font-weight:bold;vertical-align:top;">wsgi.file_wrapper</td><td style="vertical-align:top;">:</td><td><div>&lt;class wsgiref.util.FileWrapper at 0x10f38c598&gt;</div></td></tr><tr><td style="font-weight:bold;vertical-align:top;">wsgi.input</td><td style="vertical-align:top;">:</td><td><div>&lt;socket._fileobject object at 0x1154b5750&gt;</div></td></tr><tr><td style="font-weight:bold;vertical-align:top;">wsgi.multiprocess</td><td style="vertical-align:top;">:</td><td><div>False</div></td></tr><tr><td style="font-weight:bold;vertical-align:top;">wsgi.multithread</td><td style="vertical-align:top;">:</td><td><div>True</div></td></tr><tr><td style="font-weight:bold;vertical-align:top;">wsgi.run_once</td><td style="vertical-align:top;">:</td><td><div>False</div></td></tr><tr><td style="font-weight:bold;vertical-align:top;">wsgi.url_scheme</td><td style="vertical-align:top;">:</td><td><div>http</div></td></tr><tr><td style="font-weight:bold;vertical-align:top;">wsgi.version</td><td style="vertical-align:top;">:</td><td><div><table><tr><td><div>1</div></td></tr><tr><td><div>0</div></td></tr></table></div></td></tr><tr><td style="font-weight:bold;vertical-align:top;">wsgi_errors</td><td style="vertical-align:top;">:</td><td><div>&lt;open file &#x27;&lt;stderr&gt;&#x27;, mode &#x27;w&#x27; at 0x10e65c1e0&gt;</div></td></tr><tr><td style="font-weight:bold;vertical-align:top;">wsgi_file_wrapper</td><td style="vertical-align:top;">:</td><td><div>&lt;class wsgiref.util.FileWrapper at 0x10f38c598&gt;</div></td></tr><tr><td style="font-weight:bold;vertical-align:top;">wsgi_input</td><td style="vertical-align:top;">:</td><td><div>&lt;socket._fileobject object at 0x1154b5750&gt;</div></td></tr><tr><td style="font-weight:bold;vertical-align:top;">wsgi_multiprocess</td><td style="vertical-align:top;">:</td><td><div>False</div></td></tr><tr><td style="font-weight:bold;vertical-align:top;">wsgi_multithread</td><td style="vertical-align:top;">:</td><td><div>True</div></td></tr><tr><td style="font-weight:bold;vertical-align:top;">wsgi_run_once</td><td style="vertical-align:top;">:</td><td><div>False</div></td></tr><tr><td style="font-weight:bold;vertical-align:top;">wsgi_url_scheme</td><td style="vertical-align:top;">:</td><td><div>http</div></td></tr><tr><td style="font-weight:bold;vertical-align:top;">wsgi_version</td><td style="vertical-align:top;">:</td><td><div><table><tr><td><div>1</div></td></tr><tr><td><div>0</div></td></tr></table></div></td></tr></table></div></td></tr><tr><td style="font-weight:bold;vertical-align:top;">extension</td><td style="vertical-align:top;">:</td><td><div>html</div></td></tr><tr><td style="font-weight:bold;vertical-align:top;">folder</td><td style="vertical-align:top;">:</td><td><div>/Users/Liwen/Desktop/GroupOrder/applications/GroupOrder/</div></td></tr><tr><td style="font-weight:bold;vertical-align:top;">function</td><td style="vertical-align:top;">:</td><td><div>singleOrders</div></td></tr><tr><td style="font-weight:bold;vertical-align:top;">global_settings</td><td style="vertical-align:top;">:</td><td><div><table><tr><td style="font-weight:bold;vertical-align:top;">app_folders</td><td style="vertical-align:top;">:</td><td><div>set([&#x27;/Users/Liwen/Desktop/GroupOrder/applications/welcome/&#x27;, &#x27;/Users/Liwen/Desktop/GroupOrder/applications/GroupOrder/&#x27;, &#x27;/Users/Liwen/Desktop/GroupOrder/applications/admin/&#x27;])</div></td></tr><tr><td style="font-weight:bold;vertical-align:top;">applications_parent</td><td style="vertical-align:top;">:</td><td><div>/Users/Liwen/Desktop/GroupOrder</div></td></tr><tr><td style="font-weight:bold;vertical-align:top;">cmd_args</td><td style="vertical-align:top;">:</td><td><div><table></table></div></td></tr><tr><td style="font-weight:bold;vertical-align:top;">cmd_options</td><td style="vertical-align:top;">:</td><td><div>&lt;Values at 0x10fe32368: {&#x27;verbose&#x27;: False, &#x27;ip&#x27;: &#x27;127.0.0.1&#x27;, &#x27;debuglevel&#x27;: 30, &#x27;with_scheduler&#x27;: False, &#x27;ips&#x27;: [&#x27;169.233.150.194&#x27;], &#x27;shutdown_timeout&#x27;: 5, &#x27;taskbar&#x27;: False, &#x27;with_coverage&#x27;: False, &#x27;scheduler_groups&#x27;: None, &#x27;port&#x27;: 8000, &#x27;maxthreads&#x27;: None, &#x27;softcron&#x27;: False, &#x27;server_name&#x27;: &#x27;dhcp-169-233-150-194.cruznet.ucsc.edu&#x27;, &#x27;bpython&#x27;: False, &#x27;nogui&#x27;: False, &#x27;pid_filename&#x27;: &#x27;httpserver.pid&#x27;, &#x27;print_errors&#x27;: False, &#x27;extcron&#x27;: False, &#x27;runcron&#x27;: False, &#x27;run_system_tests&#x27;: False, &#x27;test&#x27;: None, &#x27;folder&#x27;: &#x27;/Users/Liwen/Desktop/GroupOrder&#x27;, &#x27;config&#x27;: &#x27;&#x27;, &#x27;minthreads&#x27;: None, &#x27;shell&#x27;: None, &#x27;run&#x27;: &#x27;&#x27;, &#x27;log_filename&#x27;: &#x27;httpserver.log&#x27;, &#x27;profiler_dir&#x27;: None, &#x27;args&#x27;: [&#x27;&#x27;], &#x27;socket_timeout&#x27;: 5, &#x27;ssl_ca_certificate&#x27;: None, &#x27;scheduler&#x27;: None, &#x27;interfaces&#x27;: None, &#x27;ssl_private_key&#x27;: &#x27;&#x27;, &#x27;gae&#x27;: None, &#x27;password&#x27;: &#x27;&lt;ask&gt;&#x27;, &#x27;request_queue_size&#x27;: 5, &#x27;ssl_certificate&#x27;: &#x27;&#x27;, &#x27;cronjob&#x27;: False, &#x27;numthreads&#x27;: None, &#x27;quiet&#x27;: False, &#x27;import_models&#x27;: False, &#x27;timeout&#x27;: 10, &#x27;plain&#x27;: False, &#x27;nobanner&#x27;: False}&gt;</div></td></tr><tr><td style="font-weight:bold;vertical-align:top;">db_sessions</td><td style="vertical-align:top;">:</td><td><div>set([])</div></td></tr><tr><td style="font-weight:bold;vertical-align:top;">debugging</td><td style="vertical-align:top;">:</td><td><div>False</div></td></tr><tr><td style="font-weight:bold;vertical-align:top;">gluon_parent</td><td style="vertical-align:top;">:</td><td><div>/Users/Liwen/Desktop/GroupOrder</div></td></tr><tr><td style="font-weight:bold;vertical-align:top;">is_jython</td><td style="vertical-align:top;">:</td><td><div>False</div></td></tr><tr><td style="font-weight:bold;vertical-align:top;">is_pypy</td><td style="vertical-align:top;">:</td><td><div>False</div></td></tr><tr><td style="font-weight:bold;vertical-align:top;">is_source</td><td style="vertical-align:top;">:</td><td><div>True</div></td></tr><tr><td style="font-weight:bold;vertical-align:top;">local_hosts</td><td style="vertical-align:top;">:</td><td><div><table><tr><td><div>::1</div></td></tr><tr><td><div>169.233.150.194</div></td></tr><tr><td><div>::ffff:127.0.0.1</div></td></tr><tr><td><div>127.0.0.1</div></td></tr><tr><td><div>dhcp-169-233-150-194.cruznet.ucsc.edu</div></td></tr></table></div></td></tr><tr><td style="font-weight:bold;vertical-align:top;">web2py_version</td><td style="vertical-align:top;">:</td><td><div>2.12.3-stable+timestamp.2015.08.19.00.18.03</div></td></tr></table></div></td></tr><tr><td style="font-weight:bold;vertical-align:top;">is_https</td><td style="vertical-align:top;">:</td><td><div>False</div></td></tr><tr><td style="font-weight:bold;vertical-align:top;">is_local</td><td style="vertical-align:top;">:</td><td><div>True</div></td></tr><tr><td style="font-weight:bold;vertical-align:top;">is_restful</td><td style="vertical-align:top;">:</td><td><div>False</div></td></tr><tr><td style="font-weight:bold;vertical-align:top;">is_sheduler</td><td style="vertical-align:top;">:</td><td><div>None</div></td></tr><tr><td style="font-weight:bold;vertical-align:top;">is_shell</td><td style="vertical-align:top;">:</td><td><div>None</div></td></tr><tr><td style="font-weight:bold;vertical-align:top;">now</td><td style="vertical-align:top;">:</td><td><div>datetime.datetime(2015, 12, 8, 17, 44, 7, 853517)</div></td></tr><tr><td style="font-weight:bold;vertical-align:top;">raw_args</td><td style="vertical-align:top;">:</td><td><div>88</div></td></tr><tr><td style="font-weight:bold;vertical-align:top;">raw_extension</td><td style="vertical-align:top;">:</td><td><div>None</div></td></tr><tr><td style="font-weight:bold;vertical-align:top;">url</td><td style="vertical-align:top;">:</td><td><div>/GroupOrder/default/singleOrders/88</div></td></tr><tr><td style="font-weight:bold;vertical-align:top;">utcnow</td><td style="vertical-align:top;">:</td><td><div>datetime.datetime(2015, 12, 9, 1, 44, 7, 853526)</div></td></tr><tr><td style="font-weight:bold;vertical-align:top;">wsgi</td><td style="vertical-align:top;">:</td><td><div>&lt;gluon.main.LazyWSGI object at 0x1158d4a90&gt;</div></td></tr></table></div>'
tRp58
sS'frames'
p59
(lp60
(dp61
S'file'
p62
S'/Users/Liwen/Desktop/GroupOrder/gluon/restricted.py'
p63
sS'dump'
p64
(dp65
S'environment'
p66
S"{'A': <class 'gluon.html.A'>, 'ANY_OF': <class 'gluon.validators.ANY_OF'>, 'ASSIGNJS': <function ASSIGNJS>, 'AppConfig': <function AppConfig>, 'Auth': <class 'gluon.tools.Auth'>, 'B': <class 'gluon.html.B'>, 'BEAUTIFY': <class 'gluon.html.BEAUTIFY'>, 'BODY': <class 'gluon.html.BODY'>, 'BR': <class 'gluon.html.BR'>, 'BUTTON': <class 'gluon.html.BUTTON'>, ...}"
p67
sS'ccode'
p68
S'<code object <module> at 0x115e072b0, file "/Use...upOrder/views/default/singleOrders.html", line 1>'
p69
ssS'lnum'
p70
I227
sS'lines'
p71
(dp72
I224
S'            ccode = code'
p73
sI225
S'        else:'
p74
sI226
S'            ccode = compile2(code, layer)'
p75
sI227
S'        exec ccode in environment'
p76
sI228
S'    except HTTP:'
p77
sI229
S'        raise'
p78
sI230
S'    except RestrictedError:'
p79
sI231
S'        # do not encapsulate (obfuscate) the original RestrictedError'
p80
sI222
S'    try:'
p81
sI223
S'        if isinstance(code, types.CodeType):'
p82
ssS'call'
p83
S'(code=\'response.write(\\\'<!DOCTYPE html>\\\\n<!--[if (gt IE ..."></script>\\\\n  </body>\\\\n</html>\\\\n\\\', escape=False)\', environment={\'A\': <class \'gluon.html.A\'>, \'ANY_OF\': <class \'gluon.validators.ANY_OF\'>, \'ASSIGNJS\': <function ASSIGNJS>, \'AppConfig\': <function AppConfig>, \'Auth\': <class \'gluon.tools.Auth\'>, \'B\': <class \'gluon.html.B\'>, \'BEAUTIFY\': <class \'gluon.html.BEAUTIFY\'>, \'BODY\': <class \'gluon.html.BODY\'>, \'BR\': <class \'gluon.html.BR\'>, \'BUTTON\': <class \'gluon.html.BUTTON\'>, ...}, layer=\'/Users/Liwen/Desktop/GroupOrder/applications/GroupOrder/views/default/singleOrders.html\')'
p84
sS'func'
p85
S'restricted'
p86
sa(dp87
g62
S'/Users/Liwen/Desktop/GroupOrder/applications/GroupOrder/views/default/singleOrders.html'
p88
sg64
(dp89
S'false'
p90
S'undefined'
p91
sS'ractive'
p92
g91
ssg70
I93
sg71
(dp93
I96
S'response.write(\'",\\n        {\\n            data: {\\n                menuId: ractive.get(\\\'menuId\\\'),\\n            },\\n            method: \\\'POST\\\',\\n            success: function (data) {\\n                ractive.set(\\\'displayMenuDetail\\\', data[\\\'displayMenuDetail\\\']);\\n                ractive.set(\\\'loading\\\', false);\\n            }\\n        }\\n    );\\n\\n    ractive.on("submitOrder", function() {\\n        var nameArray = [];\\n        var priceArray = [];\\n        var inputArray = [];\\n\\n        $("input").each(function() {\\n            inputArray.push($(this).val());\\n        });\\n\\n        $(".itemNameData").each(function() {\\n            nameArray.push($(this).html());\\n        });\\n\\n        $(".itemPriceData").each(function() {\\n            priceArray.push($(this).html());\\n        });\\n\\n//        alert(nameArray[1]);\\n//        alert(inputArray[1]);\\n//        alert(priceArray[1]);\\n//          alert((inputArray[0]*priceArray[0]));\\n//\\n//        $.ajax("\', escape=False)'
p94
sI97
S"response.write(URL('default', 'addSingleOrders', user_signature=True))"
p95
sI98
S'response.write(\'",\\n//        {\\n//            data: {\\n//                itemName1: nameArray[0],\\n//                itemPrice1: priceArray[0],\\n//                itemQuantity1: inputArray[0],\\n//                itemName2: nameArray[1],\\n//                itemPrice2: priceArray[1],\\n//                itemQuantity2: inputArray[1],\\n//                itemName3: nameArray[2],\\n//                itemPrice3: priceArray[2],\\n////                itemQuantity3: inputArray[2],\\n////                groupId: ractive.get(\\\'groupId\\\'),\\n////                menuCreator: ractive.get(\\\'menuCreator\\\'),\\n//            },\\n//            method: \\\'POST\\\',\\n//            success: function () {\\n//            },\\n//            error: function () {\\n//            }\\n//        });\\n\\n    });\\n\\n\\n\\n\\n\\n\\n\\n\\n\\n\\n});\\n</script>\\n\\n\\n\\n\\n\', escape=False)'
p96
sI99
S"response.write('\\n        ', escape=False)"
p97
sI100
S"response.write('\\n      </div>\\n\\n      ', escape=False)"
p98
sI101
S'if right_sidebar_enabled:'
p99
sI102
S'    response.write(\'\\n        <div class="col-md-3">\\n            \', escape=False)'
p100
sI103
S"    response.write('\\n            <h3>Right Sidebar</h3>\\n            <p></p>\\n            ', escape=False)"
p101
sI84
S"    response.write('\\n    ', escape=False)"
p102
sI85
S"    response.write(A('Sign In', _class='btn btn-primary btn-lg', _href=URL('default', 'user', args=['login'])))"
p103
sI86
S"    response.write('\\n    </div>\\n    ', escape=False)"
p104
sI87
S'    pass'
p105
sI88
S'response.write(\'\\n    {% #if loading %}\\n    <div id="load_spinner">\\n    <i class="fa fa-spinner fa-pulse fa-2x"></i>\\n    </div>\\n    {% /if %}\\n</div>\\n<br><br>\\n\\n<div class="container-fluid">\\n  <div class="row">\\n\\n<table class="table table-bordered" id="myTable">\\n  <thead>\\n      <tr>\\n        <th class="col-md-1">#</th>\\n        <th class="col-md-9">Item</th>\\n        <th class="col-md-1">Price</th>\\n        <th class="col-md-1">Quantity</th>\\n      </tr>\\n  </thead>\\n  <tbody>\\n      {% #displayMenuDetail:id %}\\n      <tr>\\n        <td class="itemIdData">{% itemId %}</td>\\n        <td class="itemNameData">{% itemName %}</td>\\n        <td class="itemPriceData">{% itemPrice %}</td>\\n        <td><div class="input-group">\\n            <input type="number" class="form-control" id="itemQuantityData" placeholder="0"></div>\\n        </td>\\n      </tr>\\n      {% /displayMenuDetail %}\\n  <tbody>\\n</table>\\n<div>Total:&nbsp;$&nbsp;</div>\\n\\n<button type="button" class="btn btn-primary btn-lg" on-click="submitOrder">Submit</button>\\n\\n\\n\\n\\n  </div>\\n</div>\\n\\n\\n</script>\\n\\n\\n<script>\\n\\n$(document).ready(function () {\\n\\n    var ractive = new Ractive({\\n        el: \\\'#target\\\',\\n        template: \\\'#template\\\',\\n        delimiters: [\\\'{%\\\', \\\'%}\\\'],\\n        tripleDelimiters: [\\\'{%%\\\', \\\'%%}\\\'],\\n        data: {\\n            loading: true,\\n            menuId: "\', escape=False)'
p106
sI89
S'response.write(menuId)'
p107
sI90
S'response.write(\'",\\n            displayMenuDetail: {},\\n//            singleOrderCreator: "\', escape=False)'
p108
sI91
S'response.write(auth.user_id)'
p109
sI92
S'response.write(\'",\\n//            orderId: "\', escape=False)'
p110
sI93
S'response.write()'
p111
sI94
S'response.write(\'",\\n\\n\\n\\n        }\\n    });\\n\\n\\n\\n    $.ajax("\', escape=False)'
p112
sI95
S"response.write(URL('default', 'getMenuDetail', user_signature=True))"
p113
ssg83
S'()'
p114
sg85
S'<module>'
p115
sasS'pyver'
p116
S'Python 2.7.10: /System/Library/Frameworks/Python.framework/Versions/2.7/Resources/Python.app/Contents/MacOS/Python (prefix: /System/Library/Frameworks/Python.framework/Versions/2.7)'
p117
sS'session'
p118
g57
(S's\xe9\x08\x00\x00<div><table><tr><td style="font-weight:bold;vertical-align:top;">auth</td><td style="vertical-align:top;">:</td><td><div><table><tr><td style="font-weight:bold;vertical-align:top;">expiration</td><td style="vertical-align:top;">:</td><td><div>3600</div></td></tr><tr><td style="font-weight:bold;vertical-align:top;">hmac_key</td><td style="vertical-align:top;">:</td><td><div>94ce59d8-79f9-40d2-bc9a-5f6825925253</div></td></tr><tr><td style="font-weight:bold;vertical-align:top;">last_visit</td><td style="vertical-align:top;">:</td><td><div>datetime.datetime(2015, 12, 8, 17, 44, 7, 853517)</div></td></tr><tr><td style="font-weight:bold;vertical-align:top;">remember_me</td><td style="vertical-align:top;">:</td><td><div>False</div></td></tr><tr><td style="font-weight:bold;vertical-align:top;">user</td><td style="vertical-align:top;">:</td><td><div><table><tr><td style="font-weight:bold;vertical-align:top;">email</td><td style="vertical-align:top;">:</td><td><div>aware@gasl.com</div></td></tr><tr><td style="font-weight:bold;vertical-align:top;">first_name</td><td style="vertical-align:top;">:</td><td><div>agqrewf</div></td></tr><tr><td style="font-weight:bold;vertical-align:top;">id</td><td style="vertical-align:top;">:</td><td><div>16L</div></td></tr><tr><td style="font-weight:bold;vertical-align:top;">last_name</td><td style="vertical-align:top;">:</td><td><div>gqwrg</div></td></tr><tr><td style="font-weight:bold;vertical-align:top;">registration_id</td><td style="vertical-align:top;">:</td><td><div></div></td></tr><tr><td style="font-weight:bold;vertical-align:top;">registration_key</td><td style="vertical-align:top;">:</td><td><div></div></td></tr><tr><td style="font-weight:bold;vertical-align:top;">reset_password_key</td><td style="vertical-align:top;">:</td><td><div></div></td></tr></table></div></td></tr><tr><td style="font-weight:bold;vertical-align:top;">user_groups</td><td style="vertical-align:top;">:</td><td><div><table><tr><td style="font-weight:bold;vertical-align:top;">16</td><td style="vertical-align:top;">:</td><td><div>user_16</div></td></tr></table></div></td></tr></table></div></td></tr><tr><td style="font-weight:bold;vertical-align:top;">flash</td><td style="vertical-align:top;">:</td><td><div>None</div></td></tr></table></div>'
tRp119
sS'etype'
p120
S"<type 'exceptions.TypeError'>"
p121
sS'date'
p122
S'Tue Dec  8 17:44:07 2015'
p123
sS'response'
p124
g57
(S's\xd7@\x00\x00<div><table><tr><td style="font-weight:bold;vertical-align:top;">body</td><td style="vertical-align:top;">:</td><td><div>&lt;cStringIO.StringO object at 0x115e5d2d0&gt;</div></td></tr><tr><td style="font-weight:bold;vertical-align:top;">cookies</td><td style="vertical-align:top;">:</td><td><div><table><tr><td style="font-weight:bold;vertical-align:top;">session_id_grouporder</td><td style="vertical-align:top;">:</td><td><div>127.0.0.1-48682d78-8f38-4fc4-9a18-b8a70f7c3a90<table><tr><td style="font-weight:bold;vertical-align:top;">comment</td><td style="vertical-align:top;">:</td><td><div></div></td></tr><tr><td style="font-weight:bold;vertical-align:top;">domain</td><td style="vertical-align:top;">:</td><td><div></div></td></tr><tr><td style="font-weight:bold;vertical-align:top;">expires</td><td style="vertical-align:top;">:</td><td><div></div></td></tr><tr><td style="font-weight:bold;vertical-align:top;">httponly</td><td style="vertical-align:top;">:</td><td><div></div></td></tr><tr><td style="font-weight:bold;vertical-align:top;">max-age</td><td style="vertical-align:top;">:</td><td><div></div></td></tr><tr><td style="font-weight:bold;vertical-align:top;">path</td><td style="vertical-align:top;">:</td><td><div>/</div></td></tr><tr><td style="font-weight:bold;vertical-align:top;">secure</td><td style="vertical-align:top;">:</td><td><div></div></td></tr><tr><td style="font-weight:bold;vertical-align:top;">version</td><td style="vertical-align:top;">:</td><td><div></div></td></tr></table></div></td></tr></table></div></td></tr><tr><td style="font-weight:bold;vertical-align:top;">delimiters</td><td style="vertical-align:top;">:</td><td><div><table><tr><td><div>{{</div></td></tr><tr><td><div>}}</div></td></tr></table></div></td></tr><tr><td style="font-weight:bold;vertical-align:top;">files</td><td style="vertical-align:top;">:</td><td><div><table><tr><td><div>/GroupOrder/static/js/jquery.js</div></td></tr><tr><td><div>/GroupOrder/static/css/calendar.css</div></td></tr><tr><td><div>/GroupOrder/static/js/calendar.js</div></td></tr><tr><td><div>/GroupOrder/static/js/web2py.js</div></td></tr></table></div></td></tr><tr><td style="font-weight:bold;vertical-align:top;">flash</td><td style="vertical-align:top;">:</td><td><div></div></td></tr><tr><td style="font-weight:bold;vertical-align:top;">form_label_separator</td><td style="vertical-align:top;">:</td><td><div></div></td></tr><tr><td style="font-weight:bold;vertical-align:top;">formstyle</td><td style="vertical-align:top;">:</td><td><div>bootstrap3_inline</div></td></tr><tr><td style="font-weight:bold;vertical-align:top;">generic_patterns</td><td style="vertical-align:top;">:</td><td><div><table><tr><td><div>*</div></td></tr></table></div></td></tr><tr><td style="font-weight:bold;vertical-align:top;">google_analytics_id</td><td style="vertical-align:top;">:</td><td><div>None</div></td></tr><tr><td style="font-weight:bold;vertical-align:top;">headers</td><td style="vertical-align:top;">:</td><td><div><table><tr><td style="font-weight:bold;vertical-align:top;">X-Powered-By</td><td style="vertical-align:top;">:</td><td><div>web2py</div></td></tr></table></div></td></tr><tr><td style="font-weight:bold;vertical-align:top;">logo</td><td style="vertical-align:top;">:</td><td><div><a class="navbar-brand" href="http://www.web2py.com/" id="web2py-logo"><b>web<span>2</span>py</b>&trade;&nbsp;</a></div></td></tr><tr><td style="font-weight:bold;vertical-align:top;">menu</td><td style="vertical-align:top;">:</td><td><div><table><tr><td><div><table><tr><td><div>Home</div></td></tr><tr><td><div>False</div></td></tr><tr><td><div>/GroupOrder/default/index</div></td></tr><tr><td><div><table></table></div></td></tr></table></div></td></tr><tr><td><div><table><tr><td><div>My Sites</div></td></tr><tr><td><div>False</div></td></tr><tr><td><div>/admin/default/site</div></td></tr></table></div></td></tr><tr><td><div><table><tr><td><div>This App</div></td></tr><tr><td><div>False</div></td></tr><tr><td><div>#</div></td></tr><tr><td><div><table><tr><td><div><table><tr><td><div>Design</div></td></tr><tr><td><div>False</div></td></tr><tr><td><div>/admin/default/design/GroupOrder</div></td></tr></table></div></td></tr><tr><td><div><li class="divider"></li></div></td></tr><tr><td><div><table><tr><td><div>Controller</div></td></tr><tr><td><div>False</div></td></tr><tr><td><div>/admin/default/edit/GroupOrder/controllers/default.py</div></td></tr></table></div></td></tr><tr><td><div><table><tr><td><div>View</div></td></tr><tr><td><div>False</div></td></tr><tr><td><div>/admin/default/edit/GroupOrder/views/default/singleOrders.html</div></td></tr></table></div></td></tr><tr><td><div><table><tr><td><div>DB Model</div></td></tr><tr><td><div>False</div></td></tr><tr><td><div>/admin/default/edit/GroupOrder/models/db.py</div></td></tr></table></div></td></tr><tr><td><div><table><tr><td><div>Menu Model</div></td></tr><tr><td><div>False</div></td></tr><tr><td><div>/admin/default/edit/GroupOrder/models/menu.py</div></td></tr></table></div></td></tr><tr><td><div><table><tr><td><div>Config.ini</div></td></tr><tr><td><div>False</div></td></tr><tr><td><div>/admin/default/edit/GroupOrder/private/appconfig.ini</div></td></tr></table></div></td></tr><tr><td><div><table><tr><td><div>Layout</div></td></tr><tr><td><div>False</div></td></tr><tr><td><div>/admin/default/edit/GroupOrder/views/layout.html</div></td></tr></table></div></td></tr><tr><td><div><table><tr><td><div>Stylesheet</div></td></tr><tr><td><div>False</div></td></tr><tr><td><div>/admin/default/edit/GroupOrder/static/css/web2py-bootstrap3.css</div></td></tr></table></div></td></tr><tr><td><div><table><tr><td><div>Database</div></td></tr><tr><td><div>False</div></td></tr><tr><td><div>/GroupOrder/appadmin/index</div></td></tr></table></div></td></tr><tr><td><div><table><tr><td><div>Errors</div></td></tr><tr><td><div>False</div></td></tr><tr><td><div>/admin/default/errors/GroupOrder</div></td></tr></table></div></td></tr><tr><td><div><table><tr><td><div>About</div></td></tr><tr><td><div>False</div></td></tr><tr><td><div>/admin/default/about/GroupOrder</div></td></tr></table></div></td></tr></table></div></td></tr></table></div></td></tr><tr><td><div><table><tr><td><div>web2py.com</div></td></tr><tr><td><div>False</div></td></tr><tr><td><div>#</div></td></tr><tr><td><div><table><tr><td><div><table><tr><td><div>Download</div></td></tr><tr><td><div>False</div></td></tr><tr><td><div>http://www.web2py.com/examples/default/download</div></td></tr></table></div></td></tr><tr><td><div><table><tr><td><div>Support</div></td></tr><tr><td><div>False</div></td></tr><tr><td><div>http://www.web2py.com/examples/default/support</div></td></tr></table></div></td></tr><tr><td><div><table><tr><td><div>Demo</div></td></tr><tr><td><div>False</div></td></tr><tr><td><div>http://web2py.com/demo_admin</div></td></tr></table></div></td></tr><tr><td><div><table><tr><td><div>Quick Examples</div></td></tr><tr><td><div>False</div></td></tr><tr><td><div>http://web2py.com/examples/default/examples</div></td></tr></table></div></td></tr><tr><td><div><table><tr><td><div>FAQ</div></td></tr><tr><td><div>False</div></td></tr><tr><td><div>http://web2py.com/AlterEgo</div></td></tr></table></div></td></tr><tr><td><div><table><tr><td><div>Videos</div></td></tr><tr><td><div>False</div></td></tr><tr><td><div>http://www.web2py.com/examples/default/videos/</div></td></tr></table></div></td></tr><tr><td><div><table><tr><td><div>Free Applications</div></td></tr><tr><td><div>False</div></td></tr><tr><td><div>http://web2py.com/appliances</div></td></tr></table></div></td></tr><tr><td><div><table><tr><td><div>Plugins</div></td></tr><tr><td><div>False</div></td></tr><tr><td><div>http://web2py.com/plugins</div></td></tr></table></div></td></tr><tr><td><div><table><tr><td><div>Recipes</div></td></tr><tr><td><div>False</div></td></tr><tr><td><div>http://web2pyslices.com/</div></td></tr></table></div></td></tr></table></div></td></tr></table></div></td></tr><tr><td><div><table><tr><td><div>Documentation</div></td></tr><tr><td><div>False</div></td></tr><tr><td><div>#</div></td></tr><tr><td><div><table><tr><td><div><table><tr><td><div>Online book</div></td></tr><tr><td><div>False</div></td></tr><tr><td><div>http://www.web2py.com/book</div></td></tr></table></div></td></tr><tr><td><div><li class="divider"></li></div></td></tr><tr><td><div><table><tr><td><div>Preface</div></td></tr><tr><td><div>False</div></td></tr><tr><td><div>http://www.web2py.com/book/default/chapter/00</div></td></tr></table></div></td></tr><tr><td><div><table><tr><td><div>Introduction</div></td></tr><tr><td><div>False</div></td></tr><tr><td><div>http://www.web2py.com/book/default/chapter/01</div></td></tr></table></div></td></tr><tr><td><div><table><tr><td><div>Python</div></td></tr><tr><td><div>False</div></td></tr><tr><td><div>http://www.web2py.com/book/default/chapter/02</div></td></tr></table></div></td></tr><tr><td><div><table><tr><td><div>Overview</div></td></tr><tr><td><div>False</div></td></tr><tr><td><div>http://www.web2py.com/book/default/chapter/03</div></td></tr></table></div></td></tr><tr><td><div><table><tr><td><div>The Core</div></td></tr><tr><td><div>False</div></td></tr><tr><td><div>http://www.web2py.com/book/default/chapter/04</div></td></tr></table></div></td></tr><tr><td><div><table><tr><td><div>The Views</div></td></tr><tr><td><div>False</div></td></tr><tr><td><div>http://www.web2py.com/book/default/chapter/05</div></td></tr></table></div></td></tr><tr><td><div><table><tr><td><div>Database</div></td></tr><tr><td><div>False</div></td></tr><tr><td><div>http://www.web2py.com/book/default/chapter/06</div></td></tr></table></div></td></tr><tr><td><div><table><tr><td><div>Forms and Validators</div></td></tr><tr><td><div>False</div></td></tr><tr><td><div>http://www.web2py.com/book/default/chapter/07</div></td></tr></table></div></td></tr><tr><td><div><table><tr><td><div>Email and SMS</div></td></tr><tr><td><div>False</div></td></tr><tr><td><div>http://www.web2py.com/book/default/chapter/08</div></td></tr></table></div></td></tr><tr><td><div><table><tr><td><div>Access Control</div></td></tr><tr><td><div>False</div></td></tr><tr><td><div>http://www.web2py.com/book/default/chapter/09</div></td></tr></table></div></td></tr><tr><td><div><table><tr><td><div>Services</div></td></tr><tr><td><div>False</div></td></tr><tr><td><div>http://www.web2py.com/book/default/chapter/10</div></td></tr></table></div></td></tr><tr><td><div><table><tr><td><div>Ajax Recipes</div></td></tr><tr><td><div>False</div></td></tr><tr><td><div>http://www.web2py.com/book/default/chapter/11</div></td></tr></table></div></td></tr><tr><td><div><table><tr><td><div>Components and Plugins</div></td></tr><tr><td><div>False</div></td></tr><tr><td><div>http://www.web2py.com/book/default/chapter/12</div></td></tr></table></div></td></tr><tr><td><div><table><tr><td><div>Deployment Recipes</div></td></tr><tr><td><div>False</div></td></tr><tr><td><div>http://www.web2py.com/book/default/chapter/13</div></td></tr></table></div></td></tr><tr><td><div><table><tr><td><div>Other Recipes</div></td></tr><tr><td><div>False</div></td></tr><tr><td><div>http://www.web2py.com/book/default/chapter/14</div></td></tr></table></div></td></tr><tr><td><div><table><tr><td><div>Helping web2py</div></td></tr><tr><td><div>False</div></td></tr><tr><td><div>http://www.web2py.com/book/default/chapter/15</div></td></tr></table></div></td></tr><tr><td><div><table><tr><td><div>Buy web2py\'s book</div></td></tr><tr><td><div>False</div></td></tr><tr><td><div>http://stores.lulu.com/web2py</div></td></tr></table></div></td></tr></table></div></td></tr></table></div></td></tr><tr><td><div><table><tr><td><div>Community</div></td></tr><tr><td><div>False</div></td></tr><tr><td><div>None</div></td></tr><tr><td><div><table><tr><td><div><table><tr><td><div>Groups</div></td></tr><tr><td><div>False</div></td></tr><tr><td><div>http://www.web2py.com/examples/default/usergroups</div></td></tr></table></div></td></tr><tr><td><div><table><tr><td><div>Twitter</div></td></tr><tr><td><div>False</div></td></tr><tr><td><div>http://twitter.com/web2py</div></td></tr></table></div></td></tr><tr><td><div><table><tr><td><div>Live Chat</div></td></tr><tr><td><div>False</div></td></tr><tr><td><div>http://webchat.freenode.net/?channels=web2py</div></td></tr></table></div></td></tr></table></div></td></tr></table></div></td></tr></table></div></td></tr><tr><td style="font-weight:bold;vertical-align:top;">meta</td><td style="vertical-align:top;">:</td><td><div><table><tr><td style="font-weight:bold;vertical-align:top;">author</td><td style="vertical-align:top;">:</td><td><div>Your Name &lt;you@example.com&gt;</div></td></tr><tr><td style="font-weight:bold;vertical-align:top;">description</td><td style="vertical-align:top;">:</td><td><div>a cool new app</div></td></tr><tr><td style="font-weight:bold;vertical-align:top;">generator</td><td style="vertical-align:top;">:</td><td><div>Web2py Web Framework</div></td></tr><tr><td style="font-weight:bold;vertical-align:top;">keywords</td><td style="vertical-align:top;">:</td><td><div>web2py, python, framework</div></td></tr></table></div></td></tr><tr><td style="font-weight:bold;vertical-align:top;">models_to_run</td><td style="vertical-align:top;">:</td><td><div><table><tr><td><div>^\\w+\\.py$</div></td></tr><tr><td><div>^default/\\w+\\.py$</div></td></tr><tr><td><div>^default/singleOrders/\\w+\\.py$</div></td></tr></table></div></td></tr><tr><td style="font-weight:bold;vertical-align:top;">postprocessing</td><td style="vertical-align:top;">:</td><td><div><table></table></div></td></tr><tr><td style="font-weight:bold;vertical-align:top;">session_client</td><td style="vertical-align:top;">:</td><td><div>127.0.0.1</div></td></tr><tr><td style="font-weight:bold;vertical-align:top;">session_cookie_compression_level</td><td style="vertical-align:top;">:</td><td><div>None</div></td></tr><tr><td style="font-weight:bold;vertical-align:top;">session_cookie_expires</td><td style="vertical-align:top;">:</td><td><div>None</div></td></tr><tr><td style="font-weight:bold;vertical-align:top;">session_cookie_key</td><td style="vertical-align:top;">:</td><td><div>None</div></td></tr><tr><td style="font-weight:bold;vertical-align:top;">session_data_name</td><td style="vertical-align:top;">:</td><td><div>session_data_grouporder</div></td></tr><tr><td style="font-weight:bold;vertical-align:top;">session_file</td><td style="vertical-align:top;">:</td><td><div>&lt;open file &#x27;/Users/Liwen/Desktop/GroupOrder/applications/GroupOrder/sessions/0e4/0cf/127.0.0.1-48682d78-8f38-4fc4-9a18-b8a70f7c3a90&#x27;, mode &#x27;rb+&#x27; at 0x1155dcb70&gt;</div></td></tr><tr><td style="font-weight:bold;vertical-align:top;">session_filename</td><td style="vertical-align:top;">:</td><td><div>/Users/Liwen/Desktop/GroupOrder/applications/GroupOrder/sessions/127.0.0.1-48682d78-8f38-4fc4-9a18-b8a70f7c3a90</div></td></tr><tr><td style="font-weight:bold;vertical-align:top;">session_hash</td><td style="vertical-align:top;">:</td><td><div>00938cb4470dcb9abd71c1bf4a1a8328</div></td></tr><tr><td style="font-weight:bold;vertical-align:top;">session_id</td><td style="vertical-align:top;">:</td><td><div>127.0.0.1-48682d78-8f38-4fc4-9a18-b8a70f7c3a90</div></td></tr><tr><td style="font-weight:bold;vertical-align:top;">session_id_name</td><td style="vertical-align:top;">:</td><td><div>session_id_grouporder</div></td></tr><tr><td style="font-weight:bold;vertical-align:top;">session_locked</td><td style="vertical-align:top;">:</td><td><div>True</div></td></tr><tr><td style="font-weight:bold;vertical-align:top;">session_masterapp</td><td style="vertical-align:top;">:</td><td><div>GroupOrder</div></td></tr><tr><td style="font-weight:bold;vertical-align:top;">session_new</td><td style="vertical-align:top;">:</td><td><div>False</div></td></tr><tr><td style="font-weight:bold;vertical-align:top;">session_storage_type</td><td style="vertical-align:top;">:</td><td><div>file</div></td></tr><tr><td style="font-weight:bold;vertical-align:top;">status</td><td style="vertical-align:top;">:</td><td><div>200</div></td></tr><tr><td style="font-weight:bold;vertical-align:top;">subtitle</td><td style="vertical-align:top;">:</td><td><div></div></td></tr><tr><td style="font-weight:bold;vertical-align:top;">title</td><td style="vertical-align:top;">:</td><td><div>Grouporder</div></td></tr><tr><td style="font-weight:bold;vertical-align:top;">view</td><td style="vertical-align:top;">:</td><td><div>default/singleOrders.html</div></td></tr></table></div>'
tRp125
sS'locals'
p126
(dp127
S'Service'
p128
S"<class 'gluon.tools.Service'>"
p129
sS'FORMAT'
p130
S"'%(asctime)s %(levelname)s %(process)s %(thread)s %(funcName)s():%(lineno)d %(message)s'"
p131
sS'OBJECT'
p132
S"<class 'gluon.html.OBJECT'>"
p133
sS'SQLDB'
p134
S"<class 'pydal.base.DAL'>"
p135
sg118
S"<Storage {'_auth_next': None, 'flash': None, 'au...gin]': ['e6360625-bfcb-45bb-87f7-64750a05bae7']}>"
p136
sS'LINK'
p137
S"<class 'gluon.html.LINK'>"
p138
sS'BR'
p139
S"<class 'gluon.html.BR'>"
p140
sS'local_import'
p141
S'<function <lambda>>'
p142
sS'OPTGROUP'
p143
S"<class 'gluon.html.OPTGROUP'>"
p144
sS'__package__'
p145
S'None'
p146
sS'PRE'
p147
S"<class 'gluon.html.PRE'>"
p148
sS'IS_INT_IN_RANGE'
p149
S"<class 'gluon.validators.IS_INT_IN_RANGE'>"
p150
sS'left_sidebar_enabled'
p151
S'False'
p152
sS'IS_LOWER'
p153
S"<class 'gluon.validators.IS_LOWER'>"
p154
sS'IS_STRONG'
p155
S"<class 'gluon.validators.IS_STRONG'>"
p156
sS'cache'
p157
S'<gluon.cache.Cache object>'
p158
sS'IS_IN_DB'
p159
S"<class 'gluon.validators.IS_IN_DB'>"
p160
sS'TAG'
p161
S'<gluon.html.__TAG__ object>'
p162
sS'SQLField'
p163
S"<class 'pydal.objects.Field'>"
p164
sS'mail'
p165
S'<gluon.tools.Mail object>'
p166
sS'logger'
p167
S'<logging.Logger object>'
p168
sS'BODY'
p169
S"<class 'gluon.html.BODY'>"
p170
sS'IS_DATE_IN_RANGE'
p171
S"<class 'gluon.validators.IS_DATE_IN_RANGE'>"
p172
sS'IFRAME'
p173
S"<class 'gluon.html.IFRAME'>"
p174
sS'URL'
p175
S'<function URL>'
p176
sS'__file__'
p177
S"'/Users/Liwen/Desktop/GroupOrder/applications/GroupOrder/views/default/singleOrders.html'"
p178
sS'db'
p179
S'<DAL uri="sqlite://storage.sqlite">'
p180
sS'auth'
p181
S'<gluon.tools.Auth object>'
p182
sS'P'
S"<class 'gluon.html.P'>"
p183
sS'TFOOT'
p184
S"<class 'gluon.html.TFOOT'>"
p185
sS'timedelta'
p186
S"<type 'datetime.timedelta'>"
p187
sS'XHTML'
p188
S"<class 'gluon.html.XHTML'>"
p189
sS'datetime'
p190
S"<type 'datetime.datetime'>"
p191
sS'ON'
p192
S'True'
p193
sS'OL'
p194
S"<class 'gluon.html.OL'>"
p195
sS'TEXTAREA'
p196
S"<class 'gluon.html.TEXTAREA'>"
p197
sS'MENU'
p198
S"<class 'gluon.html.MENU'>"
p199
sS'EM'
p200
S"<class 'gluon.html.EM'>"
p201
sS'CODE'
p202
S"<class 'gluon.html.CODE'>"
p203
sS'HTTP'
p204
S"<class 'gluon.http.HTTP'>"
p205
sS'HR'
p206
S"<class 'gluon.html.HR'>"
p207
sS'IS_DATETIME'
p208
S"<class 'gluon.validators.IS_DATETIME'>"
p209
sS'STYLE'
p210
S"<class 'gluon.html.STYLE'>"
p211
sS'LABEL'
p212
S"<class 'gluon.html.LABEL'>"
p213
sS'CLEANUP'
p214
S"<class 'gluon.validators.CLEANUP'>"
p215
sS'plugins'
p216
S'<gluon.tools.PluginManager object>'
p217
sS'SELECT'
p218
S"<class 'gluon.html.SELECT'>"
p219
sS'CENTER'
p220
S"<class 'gluon.html.CENTER'>"
p221
sS'Auth'
p222
S"<class 'gluon.tools.Auth'>"
p223
sS'DEVELOPMENT_MENU'
p224
g193
sS'__builtins__'
p225
S"{'ArithmeticError': <type 'exceptions.ArithmeticError'>, 'AssertionError': <type 'exceptions.AssertionError'>, 'AttributeError': <type 'exceptions.AttributeError'>, 'BaseException': <type 'exceptions.BaseException'>, 'BufferError': <type 'exceptions.BufferError'>, 'BytesWarning': <type 'exceptions.BytesWarning'>, 'DeprecationWarning': <type 'exceptions.DeprecationWarning'>, 'EOFError': <type 'exceptions.EOFError'>, 'Ellipsis': Ellipsis, 'EnvironmentError': <type 'exceptions.EnvironmentError'>, ...}"
p226
sS'HTML'
p227
S"<class 'gluon.html.HTML'>"
p228
sS'SQLFORM'
p229
S"<class 'gluon.sqlhtml.SQLFORM'>"
p230
sS'LOAD'
p231
S'<function LOAD>'
p232
sS'redirect'
p233
S'<function redirect>'
p234
sS'FIELDSET'
p235
S"<class 'gluon.html.FIELDSET'>"
p236
sS'IS_EQUAL_TO'
p237
S"<class 'gluon.validators.IS_EQUAL_TO'>"
p238
sS'embed64'
p239
S'<function embed64>'
p240
sS'IS_LIST_OF'
p241
S"<class 'gluon.validators.IS_LIST_OF'>"
p242
sS'INPUT'
p243
S"<class 'gluon.html.INPUT'>"
p244
sS'EMBED'
p245
S"<class 'gluon.html.EMBED'>"
p246
sS'_'
S'<function _>'
p247
sS'FORM'
p248
S"<class 'gluon.html.FORM'>"
p249
sS'logging'
p250
S"<module 'logging' from '/System/Library/Framewor...Versions/2.7/lib/python2.7/logging/__init__.pyc'>"
p251
sS'myconf'
p252
S"{'forms': {'formstyle': 'bootstrap3_inline', 'se...'you@gmail.com', 'server': 'smtp.gmail.com:587'}}"
p253
sS'H2'
p254
S"<class 'gluon.html.H2'>"
p255
sS'H3'
p256
S"<class 'gluon.html.H3'>"
p257
sS'AppConfig'
p258
S'<function AppConfig>'
p259
sS'H1'
p260
S"<class 'gluon.html.H1'>"
p261
sS'H6'
p262
S"<class 'gluon.html.H6'>"
p263
sS'H4'
p264
S"<class 'gluon.html.H4'>"
p265
sS'H5'
p266
S"<class 'gluon.html.H5'>"
p267
sS'UL'
p268
S"<class 'gluon.html.UL'>"
p269
sS'IS_UPPER'
p270
S"<class 'gluon.validators.IS_UPPER'>"
p271
sS'xmlescape'
p272
S'<function xmlescape>'
p273
sS'IS_TIME'
p274
S"<class 'gluon.validators.IS_TIME'>"
p275
sS'OPTION'
p276
S"<class 'gluon.html.OPTION'>"
p277
sS'TITLE'
p278
S"<class 'gluon.html.TITLE'>"
p279
sS'CRYPT'
p280
S"<class 'gluon.validators.CRYPT'>"
p281
sS'IS_EMPTY_OR'
p282
S"<class 'gluon.validators.IS_EMPTY_OR'>"
p283
sS'MARKMIN'
p284
S"<class 'gluon.html.MARKMIN'>"
p285
sS'__name__'
p286
S"'__restricted__'"
p287
sS'STRONG'
p288
S"<class 'gluon.html.STRONG'>"
p289
sS'COL'
p290
S"<class 'gluon.html.COL'>"
p291
sS'mc1'
p292
S"'col-md-9'"
p293
sS'mc0'
p294
S"'col-md-12'"
p295
sS'service'
p296
S'<gluon.tools.Service object>'
p297
sS'SCRIPT'
p298
S"<class 'gluon.html.SCRIPT'>"
p299
sS'TABLE'
p300
S"<class 'gluon.html.TABLE'>"
p301
sS'IS_IPV4'
p302
S"<class 'gluon.validators.IS_IPV4'>"
p303
sS'IS_LENGTH'
p304
S"<class 'gluon.validators.IS_LENGTH'>"
p305
sS'IS_IPV6'
p306
S"<class 'gluon.validators.IS_IPV6'>"
p307
sS'XML'
p308
S"<class 'gluon.html.XML'>"
p309
sS'B'
S"<class 'gluon.html.B'>"
p310
sS'IMG'
p311
S"<class 'gluon.html.IMG'>"
p312
sS'SQLTABLE'
p313
S"<class 'gluon.sqlhtml.SQLTABLE'>"
p314
sS'IS_MATCH'
p315
S"<class 'gluon.validators.IS_MATCH'>"
p316
sS'IS_ALPHANUMERIC'
p317
S"<class 'gluon.validators.IS_ALPHANUMERIC'>"
p318
sS'SPAN'
p319
S"<class 'gluon.html.SPAN'>"
p320
sS'IS_JSON'
p321
S"<class 'gluon.validators.IS_JSON'>"
p322
sS'IS_IPADDRESS'
p323
S"<class 'gluon.validators.IS_IPADDRESS'>"
p324
sS'IS_SLUG'
p325
S"<class 'gluon.validators.IS_SLUG'>"
p326
sS'BEAUTIFY'
p327
S"<class 'gluon.html.BEAUTIFY'>"
p328
sS'META'
p329
S"<class 'gluon.html.META'>"
p330
sS'BUTTON'
p331
S"<class 'gluon.html.BUTTON'>"
p332
sS'IS_DATE'
p333
S"<class 'gluon.validators.IS_DATE'>"
p334
sS'IS_EMAIL'
p335
S"<class 'gluon.validators.IS_EMAIL'>"
p336
sS'middle_column'
p337
S"'col-md-12'"
p338
sS'IS_NOT_EMPTY'
p339
S"<class 'gluon.validators.IS_NOT_EMPTY'>"
p340
sS'IS_FLOAT_IN_RANGE'
p341
S"<class 'gluon.validators.IS_FLOAT_IN_RANGE'>"
p342
sS'TBODY'
p343
S"<class 'gluon.html.TBODY'>"
p344
sS'CAT'
p345
S"<class 'gluon.html.CAT'>"
p346
sS'Field'
p347
S"<class 'pydal.objects.Field'>"
p348
sS'mc2'
p349
S"'col-md-6'"
p350
sS'IS_LIST_OF_EMAILS'
p351
S"<class 'gluon.validators.IS_LIST_OF_EMAILS'>"
p352
sS'DIV'
p353
S"<class 'gluon.html.DIV'>"
p354
sS'LEGEND'
p355
S"<class 'gluon.html.LEGEND'>"
p356
sS'COLGROUP'
p357
S"<class 'gluon.html.COLGROUP'>"
p358
sS'DAL'
p359
S"<class 'pydal.base.DAL'>"
p360
sS'ASSIGNJS'
p361
S'<function ASSIGNJS>'
p362
sS'TR'
p363
S"<class 'gluon.html.TR'>"
p364
sS'LI'
p365
S"<class 'gluon.html.LI'>"
p366
sS'right_sidebar_enabled'
p367
g152
sS'menuId'
p368
S"'88'"
p369
sS'TH'
p370
S"<class 'gluon.html.TH'>"
p371
sS'TD'
p372
S"<class 'gluon.html.TD'>"
p373
sS'PluginManager'
p374
S"<class 'gluon.tools.PluginManager'>"
p375
sS'IS_URL'
p376
S"<class 'gluon.validators.IS_URL'>"
p377
sS'A'
S"<class 'gluon.html.A'>"
p378
sS'HEAD'
p379
S"<class 'gluon.html.HEAD'>"
p380
sS'IS_DATETIME_IN_RANGE'
p381
S"<class 'gluon.validators.IS_DATETIME_IN_RANGE'>"
p382
sS'IS_IMAGE'
p383
S"<class 'gluon.validators.IS_IMAGE'>"
p384
sS'I'
S"<class 'gluon.html.I'>"
p385
sS'sys'
p386
S"<module 'sys' (built-in)>"
p387
sS'IS_NOT_IN_DB'
p388
S"<class 'gluon.validators.IS_NOT_IN_DB'>"
p389
sg124
S"<Storage {'body': <cStringIO.StringO object at 0...115e88050>, 'view': 'default/singleOrders.html'}>"
p390
sS'THEAD'
p391
S"<class 'gluon.html.THEAD'>"
p392
sS'ANY_OF'
p393
S"<class 'gluon.validators.ANY_OF'>"
p394
sS'IS_NULL_OR'
p395
S"<class 'gluon.validators.IS_EMPTY_OR'>"
p396
sg56
S"<Storage {'_vars': <Storage {}>, 'function': 'si...en/Desktop/GroupOrder/applications/GroupOrder/'}>"
p397
sS'IS_EXPR'
p398
S"<class 'gluon.validators.IS_EXPR'>"
p399
sS'T'
S'<gluon.languages.translator object>'
p400
sS'IS_IN_SET'
p401
S"<class 'gluon.validators.IS_IN_SET'>"
p402
sS'IS_UPLOAD_FILENAME'
p403
S"<class 'gluon.validators.IS_UPLOAD_FILENAME'>"
p404
sS'TT'
p405
S"<class 'gluon.html.TT'>"
p406
sS'IS_DECIMAL_IN_RANGE'
p407
S"<class 'gluon.validators.IS_DECIMAL_IN_RANGE'>"
p408
sssS'traceback'
p409
S'Traceback (most recent call last):\n  File "/Users/Liwen/Desktop/GroupOrder/gluon/restricted.py", line 227, in restricted\n    exec ccode in environment\n  File "/Users/Liwen/Desktop/GroupOrder/applications/GroupOrder/views/default/singleOrders.html", line 93, in <module>\n    ractive.set(\'loading\', false);\nTypeError: write() takes at least 2 arguments (1 given)\n'
p410
s.