(dp1
S'output'
p2
S"<class 'sqlite3.OperationalError'> no such table: JoinGroupRequest"
p3
sS'layer'
p4
S'/Users/yizhao/Documents/CMPS183/GroupOrder-WebApplicationInWeb2py/applications/GroupOrder/controllers/default.py'
p5
sS'code'
p6
S'\n\n\ndef index():\n    # if request.args[0] is not None:\n        # response.flash = T("Hello World")\n    return dict()\n\n\n\ndef reset():\n  db(db.Menus.id> 0).delete()\n  db(db.MenuDetails.id>0).delete()\n  db(db.Groups.id>0).delete()\n  return\n\n\n\ndef loadGroup():\n    rows = db(db.Groups.id > 0).select()\n    d = {r.id: {\'groupName\': r.groupName,\n                \'groupId\': r.id}\n         for r in rows}\n    return response.json(dict(groupList=d))\n\n\n@auth.requires_signature()\ndef createGroup():\n    group_access_id = auth.add_group(\'general\', request.vars.groupName)\n    db.Groups.insert(groupName = request.vars.groupName,\n                     groupCreator = request.vars.groupCreator,\n                     groupAccessId=group_access_id)\n    auth.add_membership(group_access_id, auth.user_id)\n    logger.info(group_access_id)\n    logger.info(auth.user_group(auth.user_id))\n\n    rows = db(db.Groups.id > 0).select()\n    d = {r.id: {\'groupName\': r.groupName,\n                \'groupId\': r.id}\n         for r in rows}\n    return response.json(dict(groupList=d))\n\n\n\n\ndef groupOrders():\n    groupId = request.args[0]\n    group_entry = db(db.Groups.id == groupId).select()\n    group_access_id= group_entry[0].groupAccessId\n    logger.info(group_access_id)\n    if not (auth.has_membership(group_access_id, auth.user_id, \'general\') or auth.has_membership(group_access_id, auth.user_id, \'admin\')):\n        # redirect(URL(\'default\', \'requestGroupMembership\', args=[groupId, group_access_id]))\n        session.flash = T("Authorization required")\n        redirect(URL(\'default\', \'index\'))\n    return dict(groupId=groupId,)\n\n\ndef requestGroupMembership():\n\n    # redirect(URL(\'default\', \'index\'))\n    return "ok"\n\ndef loadMenuOrderList():\n    menu_rows = db(db.Menus.groupId == request.vars.groupId).select()\n    menu_d = {r.id: {\'menuName\': r.menuName,\n                \'menuId\': r.id}\n         for r in menu_rows}\n\n    order_rows = db(db.GroupOrders.groupId==request.vars.groupId).select()\n    order_d = {r.id: {\'groupOrderDeadline\': r.groupOrderDeadline,\n                      \'menuId\': r.menuId}\n               for r in order_rows}\n    return response.json(dict(displayMenu=menu_d, displayOrder=order_d))\n\n\n\ndef addMenuList():\n\n    # menuList = json.load(request.vars.menuList)\n\n    db.Menus.insert(menuName = request.vars.menuName,\n                    menuCreator = request.vars.menuCreator,\n                    groupId = request.vars.groupId)\n\n    rows = db(db.Menus.id > 0).select()\n    thisMenu = rows.last()\n\n    db.MenuDetails.insert(itemName = request.vars.item1,\n                          itemPrice = request.vars.price1,\n                           menuId = thisMenu.id)\n\n    db.MenuDetails.insert(itemName = request.vars.item2,\n                      itemPrice = request.vars.price2,\n                     menuId = thisMenu.id)\n\n    db.MenuDetails.insert(itemName=request.vars.item3,\n                      itemPrice=request.vars.price3,\n                      menuId=thisMenu.id)\n\n    rows = db(db.Menus.groupId == request.vars.groupId).select()\n\n    d = {r.id: {\'menuName\': r.menuName,\n\n                \'menuId\': r.id}\n         for r in rows}\n    return response.json(dict(displayMenu=d))\n\n\ndef getMenuDetail():\n    rows = db(db.MenuDetails.menuId == request.vars.menuId).select()\n    d = {r.id: {\'itemName\': r.itemName,\n                \'itemPrice\': r.itemPrice,\n                \'itemId\': r.id}\n         for r in rows}\n    return response.json(dict(displayMenuDetail=d))\n\n\n\ndef addOrder():\n    creatorFirst = db(db.auth_user.id == auth.user_id).select(db.auth_user.first_name)\n    creatorLast = db(db.auth_user.id == auth.user_id).select(db.auth_user.last_name)\n    menuName = db(db.Menus.id == request.vars.menuId).select(db.Menus.menuName)\n    db.GroupOrders.insert(groupOrderCreator=auth.user_id,\n                          creatorFirstName=creatorFirst,\n                          creatorLastName=creatorLast,\n                          groupOrderDeadline=request.vars.deadline,\n                          menuId=request.vars.menuId,\n                          menuName=menuName,\n                          groupId=request.vars.groupId)\n\n    return "ok"\n\n\n\ndef resetOrder():\n    db(db.GroupOrders.id> 0).delete()\n    return\n\ndef resetRequest():\n    db(db.JoinGroupRequest.id > 0).delete()\n    return\n\n\ndef sendRequest():\n    groupId = request.vars.groupId\n    logger.info("request for " + groupId)\n    logger.info(auth.user_id)\n    requestTableEntry = db((db.JoinGroupRequest.applicantId == auth.user_id) & (db.JoinGroupRequest.groupId == groupId)).select().first()\n    logger.info(requestTableEntry)\n    if requestTableEntry is not None:\n        logger.info("request already made!")\n        return response.json(dict(insert=False))\n    group_entry = db(db.Groups.id == groupId).select()\n    group_access_id = group_entry[0].groupAccessId\n    group_creator_id = group_entry[0].groupCreator\n    group_name = group_entry[0].groupName\n    if group_creator_id == auth.user_id:\n        logger.info("requester is creator!")\n        return response.json(dict(insert=False))\n\n    requester_name = db(db.auth_user.id == auth.user_id).select(db.auth_user.first_name)[0].first_name\n    creator_name = db(db.auth_user.id == group_creator_id).select(db.auth_user.first_name)[0].first_name\n\n    logger.info("requester name: " + requester_name)\n    logger.info("creator name: " + creator_name)\n    logger.info("group name: " + group_name)\n\n    db.JoinGroupRequest.insert(applicantId=auth.user_id,\n                               applicantName=requester_name,\n                               groupId=groupId,\n                               groupName=group_name,\n                               groupAccessId=group_access_id,\n                               groupCreatorId=group_creator_id,\n                               groupCreatorName=creator_name,\n                               status=\'pending\')\n    return response.json(dict(insert=True))\n\n\ndef manage():\n    logger.info("in manage page")\n    # auth.user_id\n    return dict()\n\ndef loadRequest():\n    rows_control = db(db.JoinGroupRequest.groupCreatorId == auth.user_id).select()\n    d_control = {r.id: {\'groupName\': r.groupName,\n                        \'groupId\': r.groupId,\n                        \'groupAccessId\': r.groupAccessId,\n                        \'groupCreatorId\': r.groupCreatorId,\n                        \'groupCreatorName\': r.groupCreatorName,\n                        \'applicantId\': r.applicantId,\n                        \'applicantName\': r.applicantName,\n                        \'status\': r.status\n                        }\n                 for r in rows_control}\n    logger.info(len(d_control))\n\n    rows_request = db(db.JoinGroupRequest.applicantId == auth.user_id).select()\n    d_request = {r.id: {\'groupName\': r.groupName,\n                        \'groupId\': r.groupId,\n                        \'groupAccessId\': r.groupAccessId,\n                        \'groupCreatorId\': r.groupCreatorId,\n                        \'groupCreatorName\': r.groupCreatorName,\n                        \'applicantId\': r.applicantId,\n                        \'applicantName\': r.applicantName,\n                        \'status\': r.status\n                        }\n                 for r in rows_request}\n    return response.json(dict(controlList=d_control, requestList=d_request))\n\n\ndef approveRequest():\n    request_id = request.vars.requestId\n    request_entry = db(db.JoinGroupRequest.id == request_id).select().first()\n    # logger.info(request_entry.applicantName)\n    # logger.info(request_entry.groupName)\n    auth.add_membership(request_entry.groupAccessId, request_entry.applicantId)\n    db(db.JoinGroupRequest.id == request_id).update(status="approved")\n\n    rows_control = db(db.JoinGroupRequest.groupCreatorId == auth.user_id).select()\n    d_control = {r.id: {\'groupName\': r.groupName,\n                        \'groupId\': r.groupId,\n                        \'groupAccessId\': r.groupAccessId,\n                        \'groupCreatorId\': r.groupCreatorId,\n                        \'groupCreatorName\': r.groupCreatorName,\n                        \'applicantId\': r.applicantId,\n                        \'applicantName\': r.applicantName,\n                        \'status\': r.status\n                        }\n                 for r in rows_control}\n    return response.json(dict(controlList=d_control))\n\n\ndef rejectRequest():\n    request_id = request.vars.requestId\n    db(db.JoinGroupRequest.id == request_id).update(status="rejected")\n    rows_control = db(db.JoinGroupRequest.groupCreatorId == auth.user_id).select()\n    d_control = {r.id: {\'groupName\': r.groupName,\n                        \'groupId\': r.groupId,\n                        \'groupAccessId\': r.groupAccessId,\n                        \'groupCreatorId\': r.groupCreatorId,\n                        \'groupCreatorName\': r.groupCreatorName,\n                        \'applicantId\': r.applicantId,\n                        \'applicantName\': r.applicantName,\n                        \'status\': r.status\n                        }\n                 for r in rows_control}\n    return response.json(dict(controlList=d_control))\n\n\ndef user():\n    """\n    exposes:\n    http://..../[app]/default/user/login\n    http://..../[app]/default/user/logout\n    http://..../[app]/default/user/register\n    http://..../[app]/default/user/profile\n    http://..../[app]/default/user/retrieve_password\n    http://..../[app]/default/user/change_password\n    http://..../[app]/default/user/manage_users (requires membership in\n    http://..../[app]/default/user/bulk_register\n    use @auth.requires_login()\n        @auth.requires_membership(\'group name\')\n        @auth.requires_permission(\'read\',\'table name\',record_id)\n    to decorate functions that need access control\n    """\n    return dict(form=auth())\n\n\n@cache.action()\ndef download():\n    """\n    allows downloading of uploaded files\n    http://..../[app]/default/download/[filename]\n    """\n    return response.download(request, db)\n\n\ndef call():\n    """\n    exposes services. for example:\n    http://..../[app]/default/call/jsonrpc\n    decorate with @services.jsonrpc the functions to expose\n    supports xml, json, xmlrpc, jsonrpc, amfrpc, rss, csv\n    """\n    return service()\n\n\nresponse._vars=response._caller(sendRequest)\n'
p7
sS'snapshot'
p8
(dp9
S'exception'
p10
(dp11
S'__module__'
p12
S"'sqlite3'"
p13
sS'__getslice__'
p14
S"<method-wrapper '__getslice__' of OperationalError object>"
p15
sS'__str__'
p16
S"<method-wrapper '__str__' of OperationalError object>"
p17
sS'__reduce__'
p18
S'<built-in method __reduce__ of OperationalError object>'
p19
sS'__dict__'
p20
S'{}'
p21
sS'__sizeof__'
p22
S'<built-in method __sizeof__ of OperationalError object>'
p23
sS'__weakref__'
p24
S'None'
p25
sS'__init__'
p26
S"<method-wrapper '__init__' of OperationalError object>"
p27
sS'__setattr__'
p28
S"<method-wrapper '__setattr__' of OperationalError object>"
p29
sS'__reduce_ex__'
p30
S'<built-in method __reduce_ex__ of OperationalError object>'
p31
sS'__new__'
p32
S'<built-in method __new__ of type object>'
p33
sS'__format__'
p34
S'<built-in method __format__ of OperationalError object>'
p35
sS'__class__'
p36
S"<class 'sqlite3.OperationalError'>"
p37
sS'__doc__'
p38
S'None'
p39
sS'__getitem__'
p40
S"<method-wrapper '__getitem__' of OperationalError object>"
p41
sS'__setstate__'
p42
S'<built-in method __setstate__ of OperationalError object>'
p43
sS'__getattribute__'
p44
S"<method-wrapper '__getattribute__' of OperationalError object>"
p45
sS'args'
p46
S"('no such table: JoinGroupRequest',)"
p47
sS'__subclasshook__'
p48
S'<built-in method __subclasshook__ of type object>'
p49
sS'__unicode__'
p50
S'<built-in method __unicode__ of OperationalError object>'
p51
sS'__delattr__'
p52
S"<method-wrapper '__delattr__' of OperationalError object>"
p53
sS'__repr__'
p54
S"<method-wrapper '__repr__' of OperationalError object>"
p55
sS'__hash__'
p56
S"<method-wrapper '__hash__' of OperationalError object>"
p57
ssS'evalue'
p58
S'no such table: JoinGroupRequest'
p59
sS'request'
p60
cgluon.html
XML_unpickle
p61
(S's\xb6_\x00\x00<div><table><tr><td style="font-weight:bold;vertical-align:top;">ajax</td><td style="vertical-align:top;">:</td><td><div>True</div></td></tr><tr><td style="font-weight:bold;vertical-align:top;">application</td><td style="vertical-align:top;">:</td><td><div>GroupOrder</div></td></tr><tr><td style="font-weight:bold;vertical-align:top;">args</td><td style="vertical-align:top;">:</td><td><div><table></table></div></td></tr><tr><td style="font-weight:bold;vertical-align:top;">cid</td><td style="vertical-align:top;">:</td><td><div>None</div></td></tr><tr><td style="font-weight:bold;vertical-align:top;">client</td><td style="vertical-align:top;">:</td><td><div>127.0.0.1</div></td></tr><tr><td style="font-weight:bold;vertical-align:top;">controller</td><td style="vertical-align:top;">:</td><td><div>default</div></td></tr><tr><td style="font-weight:bold;vertical-align:top;">cookies</td><td style="vertical-align:top;">:</td><td><div><table><tr><td style="font-weight:bold;vertical-align:top;">session_id_grouporder</td><td style="vertical-align:top;">:</td><td><div>127.0.0.1-053c642d-35e2-4c85-9f28-59d0c47ca9a0<table><tr><td style="font-weight:bold;vertical-align:top;">comment</td><td style="vertical-align:top;">:</td><td><div></div></td></tr><tr><td style="font-weight:bold;vertical-align:top;">domain</td><td style="vertical-align:top;">:</td><td><div></div></td></tr><tr><td style="font-weight:bold;vertical-align:top;">expires</td><td style="vertical-align:top;">:</td><td><div></div></td></tr><tr><td style="font-weight:bold;vertical-align:top;">httponly</td><td style="vertical-align:top;">:</td><td><div></div></td></tr><tr><td style="font-weight:bold;vertical-align:top;">max-age</td><td style="vertical-align:top;">:</td><td><div></div></td></tr><tr><td style="font-weight:bold;vertical-align:top;">path</td><td style="vertical-align:top;">:</td><td><div></div></td></tr><tr><td style="font-weight:bold;vertical-align:top;">secure</td><td style="vertical-align:top;">:</td><td><div></div></td></tr><tr><td style="font-weight:bold;vertical-align:top;">version</td><td style="vertical-align:top;">:</td><td><div></div></td></tr></table></div></td></tr><tr><td style="font-weight:bold;vertical-align:top;">session_id_welcome</td><td style="vertical-align:top;">:</td><td><div>127.0.0.1-6ad2e525-6e49-4d6b-8bef-722d01aa0bb2<table><tr><td style="font-weight:bold;vertical-align:top;">comment</td><td style="vertical-align:top;">:</td><td><div></div></td></tr><tr><td style="font-weight:bold;vertical-align:top;">domain</td><td style="vertical-align:top;">:</td><td><div></div></td></tr><tr><td style="font-weight:bold;vertical-align:top;">expires</td><td style="vertical-align:top;">:</td><td><div></div></td></tr><tr><td style="font-weight:bold;vertical-align:top;">httponly</td><td style="vertical-align:top;">:</td><td><div></div></td></tr><tr><td style="font-weight:bold;vertical-align:top;">max-age</td><td style="vertical-align:top;">:</td><td><div></div></td></tr><tr><td style="font-weight:bold;vertical-align:top;">path</td><td style="vertical-align:top;">:</td><td><div></div></td></tr><tr><td style="font-weight:bold;vertical-align:top;">secure</td><td style="vertical-align:top;">:</td><td><div></div></td></tr><tr><td style="font-weight:bold;vertical-align:top;">version</td><td style="vertical-align:top;">:</td><td><div></div></td></tr></table></div></td></tr></table></div></td></tr><tr><td style="font-weight:bold;vertical-align:top;">env</td><td style="vertical-align:top;">:</td><td><div><table><tr><td style="font-weight:bold;vertical-align:top;">CONTENT_LENGTH</td><td style="vertical-align:top;">:</td><td><div>9</div></td></tr><tr><td style="font-weight:bold;vertical-align:top;">CONTENT_TYPE</td><td style="vertical-align:top;">:</td><td><div>application/x-www-form-urlencoded; charset=UTF-8</div></td></tr><tr><td style="font-weight:bold;vertical-align:top;">HTTP_ACCEPT</td><td style="vertical-align:top;">:</td><td><div>*/*</div></td></tr><tr><td style="font-weight:bold;vertical-align:top;">HTTP_ACCEPT_ENCODING</td><td style="vertical-align:top;">:</td><td><div>gzip, deflate</div></td></tr><tr><td style="font-weight:bold;vertical-align:top;">HTTP_ACCEPT_LANGUAGE</td><td style="vertical-align:top;">:</td><td><div>en-US,en;q=0.8,zh-CN;q=0.6,zh-TW;q=0.4</div></td></tr><tr><td style="font-weight:bold;vertical-align:top;">HTTP_CONNECTION</td><td style="vertical-align:top;">:</td><td><div>keep-alive</div></td></tr><tr><td style="font-weight:bold;vertical-align:top;">HTTP_CONTENT_LENGTH</td><td style="vertical-align:top;">:</td><td><div>9</div></td></tr><tr><td style="font-weight:bold;vertical-align:top;">HTTP_CONTENT_TYPE</td><td style="vertical-align:top;">:</td><td><div>application/x-www-form-urlencoded; charset=UTF-8</div></td></tr><tr><td style="font-weight:bold;vertical-align:top;">HTTP_COOKIE</td><td style="vertical-align:top;">:</td><td><div>session_id_welcome=127.0.0.1-6ad2e525-6e49-4d6b-8bef-722d01aa0bb2; session_id_grouporder=127.0.0.1-053c642d-35e2-4c85-9f28-59d0c47ca9a0</div></td></tr><tr><td style="font-weight:bold;vertical-align:top;">HTTP_HOST</td><td style="vertical-align:top;">:</td><td><div>127.0.0.1:8000</div></td></tr><tr><td style="font-weight:bold;vertical-align:top;">HTTP_ORIGIN</td><td style="vertical-align:top;">:</td><td><div>http://127.0.0.1:8000</div></td></tr><tr><td style="font-weight:bold;vertical-align:top;">HTTP_REFERER</td><td style="vertical-align:top;">:</td><td><div>http://127.0.0.1:8000/GroupOrder/default/index</div></td></tr><tr><td style="font-weight:bold;vertical-align:top;">HTTP_USER_AGENT</td><td style="vertical-align:top;">:</td><td><div>Mozilla/5.0 (iPhone; CPU iPhone OS 7_0 like Mac OS X; en-us) AppleWebKit/537.51.1 (KHTML, like Gecko) Version/7.0 Mobile/11A465 Safari/9537.53</div></td></tr><tr><td style="font-weight:bold;vertical-align:top;">HTTP_X_REQUESTED_WITH</td><td style="vertical-align:top;">:</td><td><div>XMLHttpRequest</div></td></tr><tr><td style="font-weight:bold;vertical-align:top;">PATH_INFO</td><td style="vertical-align:top;">:</td><td><div>/GroupOrder/default/sendRequest</div></td></tr><tr><td style="font-weight:bold;vertical-align:top;">QUERY_STRING</td><td style="vertical-align:top;">:</td><td><div>_signature=3151d79b9d0fcd15f6688dee8a68cdf5f85d3197</div></td></tr><tr><td style="font-weight:bold;vertical-align:top;">REMOTE_ADDR</td><td style="vertical-align:top;">:</td><td><div>127.0.0.1</div></td></tr><tr><td style="font-weight:bold;vertical-align:top;">REMOTE_PORT</td><td style="vertical-align:top;">:</td><td><div>65248</div></td></tr><tr><td style="font-weight:bold;vertical-align:top;">REQUEST_METHOD</td><td style="vertical-align:top;">:</td><td><div>POST</div></td></tr><tr><td style="font-weight:bold;vertical-align:top;">SCRIPT_NAME</td><td style="vertical-align:top;">:</td><td><div></div></td></tr><tr><td style="font-weight:bold;vertical-align:top;">SERVER_NAME</td><td style="vertical-align:top;">:</td><td><div>dhcp-169-233-140-47.cruznet.ucsc.edu</div></td></tr><tr><td style="font-weight:bold;vertical-align:top;">SERVER_PORT</td><td style="vertical-align:top;">:</td><td><div>8000</div></td></tr><tr><td style="font-weight:bold;vertical-align:top;">SERVER_PROTOCOL</td><td style="vertical-align:top;">:</td><td><div>HTTP/1.1</div></td></tr><tr><td style="font-weight:bold;vertical-align:top;">SERVER_SOFTWARE</td><td style="vertical-align:top;">:</td><td><div>Rocket 1.2.6</div></td></tr><tr><td style="font-weight:bold;vertical-align:top;">app_folders</td><td style="vertical-align:top;">:</td><td><div>set([&#x27;/Users/yizhao/Documents/CMPS183/GroupOrder-WebApplicationInWeb2py/applications/GroupOrder/&#x27;, &#x27;/Users/yizhao/Documents/CMPS183/GroupOrder-WebApplicationInWeb2py/applications/welcome/&#x27;])</div></td></tr><tr><td style="font-weight:bold;vertical-align:top;">applications_parent</td><td style="vertical-align:top;">:</td><td><div>/Users/yizhao/Documents/CMPS183/GroupOrder-WebApplicationInWeb2py</div></td></tr><tr><td style="font-weight:bold;vertical-align:top;">cmd_args</td><td style="vertical-align:top;">:</td><td><div><table></table></div></td></tr><tr><td style="font-weight:bold;vertical-align:top;">cmd_options</td><td style="vertical-align:top;">:</td><td><div>&lt;Values at 0x10bd7bd88: {&#x27;verbose&#x27;: False, &#x27;ip&#x27;: &#x27;127.0.0.1&#x27;, &#x27;debuglevel&#x27;: 30, &#x27;with_scheduler&#x27;: False, &#x27;ips&#x27;: [&#x27;169.233.140.47&#x27;], &#x27;shutdown_timeout&#x27;: 5, &#x27;taskbar&#x27;: False, &#x27;with_coverage&#x27;: False, &#x27;scheduler_groups&#x27;: None, &#x27;port&#x27;: 8000, &#x27;maxthreads&#x27;: None, &#x27;softcron&#x27;: False, &#x27;server_name&#x27;: &#x27;dhcp-169-233-140-47.cruznet.ucsc.edu&#x27;, &#x27;bpython&#x27;: False, &#x27;nogui&#x27;: False, &#x27;pid_filename&#x27;: &#x27;httpserver.pid&#x27;, &#x27;print_errors&#x27;: False, &#x27;extcron&#x27;: False, &#x27;runcron&#x27;: False, &#x27;run_system_tests&#x27;: False, &#x27;test&#x27;: None, &#x27;folder&#x27;: &#x27;/Users/yizhao/Documents/CMPS183/GroupOrder-WebApplicationInWeb2py&#x27;, &#x27;config&#x27;: &#x27;&#x27;, &#x27;minthreads&#x27;: None, &#x27;shell&#x27;: None, &#x27;run&#x27;: &#x27;&#x27;, &#x27;log_filename&#x27;: &#x27;httpserver.log&#x27;, &#x27;profiler_dir&#x27;: None, &#x27;args&#x27;: [&#x27;&#x27;], &#x27;socket_timeout&#x27;: 5, &#x27;ssl_ca_certificate&#x27;: None, &#x27;scheduler&#x27;: None, &#x27;interfaces&#x27;: None, &#x27;ssl_private_key&#x27;: &#x27;&#x27;, &#x27;gae&#x27;: None, &#x27;password&#x27;: &#x27;&lt;ask&gt;&#x27;, &#x27;request_queue_size&#x27;: 5, &#x27;ssl_certificate&#x27;: &#x27;&#x27;, &#x27;cronjob&#x27;: False, &#x27;numthreads&#x27;: None, &#x27;quiet&#x27;: False, &#x27;import_models&#x27;: False, &#x27;timeout&#x27;: 10, &#x27;plain&#x27;: False, &#x27;nobanner&#x27;: False}&gt;</div></td></tr><tr><td style="font-weight:bold;vertical-align:top;">content_length</td><td style="vertical-align:top;">:</td><td><div>9</div></td></tr><tr><td style="font-weight:bold;vertical-align:top;">content_type</td><td style="vertical-align:top;">:</td><td><div>application/x-www-form-urlencoded; charset=UTF-8</div></td></tr><tr><td style="font-weight:bold;vertical-align:top;">db_sessions</td><td style="vertical-align:top;">:</td><td><div>set([])</div></td></tr><tr><td style="font-weight:bold;vertical-align:top;">debugging</td><td style="vertical-align:top;">:</td><td><div>False</div></td></tr><tr><td style="font-weight:bold;vertical-align:top;">gluon_parent</td><td style="vertical-align:top;">:</td><td><div>/Users/yizhao/Documents/CMPS183/GroupOrder-WebApplicationInWeb2py</div></td></tr><tr><td style="font-weight:bold;vertical-align:top;">http_accept</td><td style="vertical-align:top;">:</td><td><div>*/*</div></td></tr><tr><td style="font-weight:bold;vertical-align:top;">http_accept_encoding</td><td style="vertical-align:top;">:</td><td><div>gzip, deflate</div></td></tr><tr><td style="font-weight:bold;vertical-align:top;">http_accept_language</td><td style="vertical-align:top;">:</td><td><div>en-US,en;q=0.8,zh-CN;q=0.6,zh-TW;q=0.4</div></td></tr><tr><td style="font-weight:bold;vertical-align:top;">http_connection</td><td style="vertical-align:top;">:</td><td><div>keep-alive</div></td></tr><tr><td style="font-weight:bold;vertical-align:top;">http_content_length</td><td style="vertical-align:top;">:</td><td><div>9</div></td></tr><tr><td style="font-weight:bold;vertical-align:top;">http_content_type</td><td style="vertical-align:top;">:</td><td><div>application/x-www-form-urlencoded; charset=UTF-8</div></td></tr><tr><td style="font-weight:bold;vertical-align:top;">http_cookie</td><td style="vertical-align:top;">:</td><td><div>session_id_welcome=127.0.0.1-6ad2e525-6e49-4d6b-8bef-722d01aa0bb2; session_id_grouporder=127.0.0.1-053c642d-35e2-4c85-9f28-59d0c47ca9a0</div></td></tr><tr><td style="font-weight:bold;vertical-align:top;">http_host</td><td style="vertical-align:top;">:</td><td><div>127.0.0.1:8000</div></td></tr><tr><td style="font-weight:bold;vertical-align:top;">http_origin</td><td style="vertical-align:top;">:</td><td><div>http://127.0.0.1:8000</div></td></tr><tr><td style="font-weight:bold;vertical-align:top;">http_referer</td><td style="vertical-align:top;">:</td><td><div>http://127.0.0.1:8000/GroupOrder/default/index</div></td></tr><tr><td style="font-weight:bold;vertical-align:top;">http_user_agent</td><td style="vertical-align:top;">:</td><td><div>Mozilla/5.0 (iPhone; CPU iPhone OS 7_0 like Mac OS X; en-us) AppleWebKit/537.51.1 (KHTML, like Gecko) Version/7.0 Mobile/11A465 Safari/9537.53</div></td></tr><tr><td style="font-weight:bold;vertical-align:top;">http_x_requested_with</td><td style="vertical-align:top;">:</td><td><div>XMLHttpRequest</div></td></tr><tr><td style="font-weight:bold;vertical-align:top;">is_jython</td><td style="vertical-align:top;">:</td><td><div>False</div></td></tr><tr><td style="font-weight:bold;vertical-align:top;">is_pypy</td><td style="vertical-align:top;">:</td><td><div>False</div></td></tr><tr><td style="font-weight:bold;vertical-align:top;">is_source</td><td style="vertical-align:top;">:</td><td><div>True</div></td></tr><tr><td style="font-weight:bold;vertical-align:top;">local_hosts</td><td style="vertical-align:top;">:</td><td><div><table><tr><td><div>dhcp-169-233-140-47.cruznet.ucsc.edu</div></td></tr><tr><td><div>::1</div></td></tr><tr><td><div>169.233.140.47</div></td></tr><tr><td><div>::ffff:127.0.0.1</div></td></tr><tr><td><div>127.0.0.1</div></td></tr></table></div></td></tr><tr><td style="font-weight:bold;vertical-align:top;">path_info</td><td style="vertical-align:top;">:</td><td><div>/GroupOrder/default/sendRequest</div></td></tr><tr><td style="font-weight:bold;vertical-align:top;">query_string</td><td style="vertical-align:top;">:</td><td><div>_signature=3151d79b9d0fcd15f6688dee8a68cdf5f85d3197</div></td></tr><tr><td style="font-weight:bold;vertical-align:top;">remote_addr</td><td style="vertical-align:top;">:</td><td><div>127.0.0.1</div></td></tr><tr><td style="font-weight:bold;vertical-align:top;">remote_port</td><td style="vertical-align:top;">:</td><td><div>65248</div></td></tr><tr><td style="font-weight:bold;vertical-align:top;">request_method</td><td style="vertical-align:top;">:</td><td><div>POST</div></td></tr><tr><td style="font-weight:bold;vertical-align:top;">request_uri</td><td style="vertical-align:top;">:</td><td><div>/GroupOrder/default/sendRequest?_signature=3151d79b9d0fcd15f6688dee8a68cdf5f85d3197</div></td></tr><tr><td style="font-weight:bold;vertical-align:top;">script_name</td><td style="vertical-align:top;">:</td><td><div></div></td></tr><tr><td style="font-weight:bold;vertical-align:top;">server_name</td><td style="vertical-align:top;">:</td><td><div>dhcp-169-233-140-47.cruznet.ucsc.edu</div></td></tr><tr><td style="font-weight:bold;vertical-align:top;">server_port</td><td style="vertical-align:top;">:</td><td><div>8000</div></td></tr><tr><td style="font-weight:bold;vertical-align:top;">server_protocol</td><td style="vertical-align:top;">:</td><td><div>HTTP/1.1</div></td></tr><tr><td style="font-weight:bold;vertical-align:top;">server_software</td><td style="vertical-align:top;">:</td><td><div>Rocket 1.2.6</div></td></tr><tr><td style="font-weight:bold;vertical-align:top;">web2py_path</td><td style="vertical-align:top;">:</td><td><div>/Users/yizhao/Documents/CMPS183/GroupOrder-WebApplicationInWeb2py</div></td></tr><tr><td style="font-weight:bold;vertical-align:top;">web2py_version</td><td style="vertical-align:top;">:</td><td><div>2.12.3-stable+timestamp.2015.08.19.00.18.03</div></td></tr><tr><td style="font-weight:bold;vertical-align:top;">wsgi.errors</td><td style="vertical-align:top;">:</td><td><div>&lt;open file &#x27;&lt;stderr&gt;&#x27;, mode &#x27;w&#x27; at 0x10ac991e0&gt;</div></td></tr><tr><td style="font-weight:bold;vertical-align:top;">wsgi.file_wrapper</td><td style="vertical-align:top;">:</td><td><div>&lt;class wsgiref.util.FileWrapper at 0x10bd08668&gt;</div></td></tr><tr><td style="font-weight:bold;vertical-align:top;">wsgi.input</td><td style="vertical-align:top;">:</td><td><div>&lt;socket._fileobject object at 0x11189e250&gt;</div></td></tr><tr><td style="font-weight:bold;vertical-align:top;">wsgi.multiprocess</td><td style="vertical-align:top;">:</td><td><div>False</div></td></tr><tr><td style="font-weight:bold;vertical-align:top;">wsgi.multithread</td><td style="vertical-align:top;">:</td><td><div>True</div></td></tr><tr><td style="font-weight:bold;vertical-align:top;">wsgi.run_once</td><td style="vertical-align:top;">:</td><td><div>False</div></td></tr><tr><td style="font-weight:bold;vertical-align:top;">wsgi.url_scheme</td><td style="vertical-align:top;">:</td><td><div>http</div></td></tr><tr><td style="font-weight:bold;vertical-align:top;">wsgi.version</td><td style="vertical-align:top;">:</td><td><div><table><tr><td><div>1</div></td></tr><tr><td><div>0</div></td></tr></table></div></td></tr><tr><td style="font-weight:bold;vertical-align:top;">wsgi_errors</td><td style="vertical-align:top;">:</td><td><div>&lt;open file &#x27;&lt;stderr&gt;&#x27;, mode &#x27;w&#x27; at 0x10ac991e0&gt;</div></td></tr><tr><td style="font-weight:bold;vertical-align:top;">wsgi_file_wrapper</td><td style="vertical-align:top;">:</td><td><div>&lt;class wsgiref.util.FileWrapper at 0x10bd08668&gt;</div></td></tr><tr><td style="font-weight:bold;vertical-align:top;">wsgi_input</td><td style="vertical-align:top;">:</td><td><div>&lt;socket._fileobject object at 0x11189e250&gt;</div></td></tr><tr><td style="font-weight:bold;vertical-align:top;">wsgi_multiprocess</td><td style="vertical-align:top;">:</td><td><div>False</div></td></tr><tr><td style="font-weight:bold;vertical-align:top;">wsgi_multithread</td><td style="vertical-align:top;">:</td><td><div>True</div></td></tr><tr><td style="font-weight:bold;vertical-align:top;">wsgi_run_once</td><td style="vertical-align:top;">:</td><td><div>False</div></td></tr><tr><td style="font-weight:bold;vertical-align:top;">wsgi_url_scheme</td><td style="vertical-align:top;">:</td><td><div>http</div></td></tr><tr><td style="font-weight:bold;vertical-align:top;">wsgi_version</td><td style="vertical-align:top;">:</td><td><div><table><tr><td><div>1</div></td></tr><tr><td><div>0</div></td></tr></table></div></td></tr></table></div></td></tr><tr><td style="font-weight:bold;vertical-align:top;">extension</td><td style="vertical-align:top;">:</td><td><div>html</div></td></tr><tr><td style="font-weight:bold;vertical-align:top;">folder</td><td style="vertical-align:top;">:</td><td><div>/Users/yizhao/Documents/CMPS183/GroupOrder-WebApplicationInWeb2py/applications/GroupOrder/</div></td></tr><tr><td style="font-weight:bold;vertical-align:top;">function</td><td style="vertical-align:top;">:</td><td><div>sendRequest</div></td></tr><tr><td style="font-weight:bold;vertical-align:top;">global_settings</td><td style="vertical-align:top;">:</td><td><div><table><tr><td style="font-weight:bold;vertical-align:top;">app_folders</td><td style="vertical-align:top;">:</td><td><div>set([&#x27;/Users/yizhao/Documents/CMPS183/GroupOrder-WebApplicationInWeb2py/applications/GroupOrder/&#x27;, &#x27;/Users/yizhao/Documents/CMPS183/GroupOrder-WebApplicationInWeb2py/applications/welcome/&#x27;])</div></td></tr><tr><td style="font-weight:bold;vertical-align:top;">applications_parent</td><td style="vertical-align:top;">:</td><td><div>/Users/yizhao/Documents/CMPS183/GroupOrder-WebApplicationInWeb2py</div></td></tr><tr><td style="font-weight:bold;vertical-align:top;">cmd_args</td><td style="vertical-align:top;">:</td><td><div><table></table></div></td></tr><tr><td style="font-weight:bold;vertical-align:top;">cmd_options</td><td style="vertical-align:top;">:</td><td><div>&lt;Values at 0x10bd7bd88: {&#x27;verbose&#x27;: False, &#x27;ip&#x27;: &#x27;127.0.0.1&#x27;, &#x27;debuglevel&#x27;: 30, &#x27;with_scheduler&#x27;: False, &#x27;ips&#x27;: [&#x27;169.233.140.47&#x27;], &#x27;shutdown_timeout&#x27;: 5, &#x27;taskbar&#x27;: False, &#x27;with_coverage&#x27;: False, &#x27;scheduler_groups&#x27;: None, &#x27;port&#x27;: 8000, &#x27;maxthreads&#x27;: None, &#x27;softcron&#x27;: False, &#x27;server_name&#x27;: &#x27;dhcp-169-233-140-47.cruznet.ucsc.edu&#x27;, &#x27;bpython&#x27;: False, &#x27;nogui&#x27;: False, &#x27;pid_filename&#x27;: &#x27;httpserver.pid&#x27;, &#x27;print_errors&#x27;: False, &#x27;extcron&#x27;: False, &#x27;runcron&#x27;: False, &#x27;run_system_tests&#x27;: False, &#x27;test&#x27;: None, &#x27;folder&#x27;: &#x27;/Users/yizhao/Documents/CMPS183/GroupOrder-WebApplicationInWeb2py&#x27;, &#x27;config&#x27;: &#x27;&#x27;, &#x27;minthreads&#x27;: None, &#x27;shell&#x27;: None, &#x27;run&#x27;: &#x27;&#x27;, &#x27;log_filename&#x27;: &#x27;httpserver.log&#x27;, &#x27;profiler_dir&#x27;: None, &#x27;args&#x27;: [&#x27;&#x27;], &#x27;socket_timeout&#x27;: 5, &#x27;ssl_ca_certificate&#x27;: None, &#x27;scheduler&#x27;: None, &#x27;interfaces&#x27;: None, &#x27;ssl_private_key&#x27;: &#x27;&#x27;, &#x27;gae&#x27;: None, &#x27;password&#x27;: &#x27;&lt;ask&gt;&#x27;, &#x27;request_queue_size&#x27;: 5, &#x27;ssl_certificate&#x27;: &#x27;&#x27;, &#x27;cronjob&#x27;: False, &#x27;numthreads&#x27;: None, &#x27;quiet&#x27;: False, &#x27;import_models&#x27;: False, &#x27;timeout&#x27;: 10, &#x27;plain&#x27;: False, &#x27;nobanner&#x27;: False}&gt;</div></td></tr><tr><td style="font-weight:bold;vertical-align:top;">db_sessions</td><td style="vertical-align:top;">:</td><td><div>set([])</div></td></tr><tr><td style="font-weight:bold;vertical-align:top;">debugging</td><td style="vertical-align:top;">:</td><td><div>False</div></td></tr><tr><td style="font-weight:bold;vertical-align:top;">gluon_parent</td><td style="vertical-align:top;">:</td><td><div>/Users/yizhao/Documents/CMPS183/GroupOrder-WebApplicationInWeb2py</div></td></tr><tr><td style="font-weight:bold;vertical-align:top;">is_jython</td><td style="vertical-align:top;">:</td><td><div>False</div></td></tr><tr><td style="font-weight:bold;vertical-align:top;">is_pypy</td><td style="vertical-align:top;">:</td><td><div>False</div></td></tr><tr><td style="font-weight:bold;vertical-align:top;">is_source</td><td style="vertical-align:top;">:</td><td><div>True</div></td></tr><tr><td style="font-weight:bold;vertical-align:top;">local_hosts</td><td style="vertical-align:top;">:</td><td><div><table><tr><td><div>dhcp-169-233-140-47.cruznet.ucsc.edu</div></td></tr><tr><td><div>::1</div></td></tr><tr><td><div>169.233.140.47</div></td></tr><tr><td><div>::ffff:127.0.0.1</div></td></tr><tr><td><div>127.0.0.1</div></td></tr></table></div></td></tr><tr><td style="font-weight:bold;vertical-align:top;">web2py_version</td><td style="vertical-align:top;">:</td><td><div>2.12.3-stable+timestamp.2015.08.19.00.18.03</div></td></tr></table></div></td></tr><tr><td style="font-weight:bold;vertical-align:top;">is_https</td><td style="vertical-align:top;">:</td><td><div>False</div></td></tr><tr><td style="font-weight:bold;vertical-align:top;">is_local</td><td style="vertical-align:top;">:</td><td><div>True</div></td></tr><tr><td style="font-weight:bold;vertical-align:top;">is_restful</td><td style="vertical-align:top;">:</td><td><div>False</div></td></tr><tr><td style="font-weight:bold;vertical-align:top;">is_sheduler</td><td style="vertical-align:top;">:</td><td><div>None</div></td></tr><tr><td style="font-weight:bold;vertical-align:top;">is_shell</td><td style="vertical-align:top;">:</td><td><div>None</div></td></tr><tr><td style="font-weight:bold;vertical-align:top;">now</td><td style="vertical-align:top;">:</td><td><div>datetime.datetime(2015, 12, 8, 22, 34, 11, 118839)</div></td></tr><tr><td style="font-weight:bold;vertical-align:top;">raw_args</td><td style="vertical-align:top;">:</td><td><div></div></td></tr><tr><td style="font-weight:bold;vertical-align:top;">raw_extension</td><td style="vertical-align:top;">:</td><td><div>None</div></td></tr><tr><td style="font-weight:bold;vertical-align:top;">url</td><td style="vertical-align:top;">:</td><td><div>/GroupOrder/default/sendRequest</div></td></tr><tr><td style="font-weight:bold;vertical-align:top;">utcnow</td><td style="vertical-align:top;">:</td><td><div>datetime.datetime(2015, 12, 9, 6, 34, 11, 118854)</div></td></tr><tr><td style="font-weight:bold;vertical-align:top;">wsgi</td><td style="vertical-align:top;">:</td><td><div>&lt;gluon.main.LazyWSGI object at 0x111675ad0&gt;</div></td></tr></table></div>'
tRp62
sS'frames'
p63
(lp64
(dp65
S'file'
p66
S'/Users/yizhao/Documents/CMPS183/GroupOrder-WebApplicationInWeb2py/gluon/restricted.py'
p67
sS'dump'
p68
(dp69
S'environment'
p70
S"{'A': <class 'gluon.html.A'>, 'ANY_OF': <class 'gluon.validators.ANY_OF'>, 'ASSIGNJS': <function ASSIGNJS>, 'AppConfig': <function AppConfig>, 'Auth': <class 'gluon.tools.Auth'>, 'B': <class 'gluon.html.B'>, 'BEAUTIFY': <class 'gluon.html.BEAUTIFY'>, 'BODY': <class 'gluon.html.BODY'>, 'BR': <class 'gluon.html.BR'>, 'BUTTON': <class 'gluon.html.BUTTON'>, ...}"
p71
sS'ccode'
p72
S'<code object <module> at 0x1119997b0, file "/Use...tions/GroupOrder/controllers/default.py", line 4>'
p73
ssS'lnum'
p74
I227
sS'lines'
p75
(dp76
I224
S'            ccode = code'
p77
sI225
S'        else:'
p78
sI226
S'            ccode = compile2(code, layer)'
p79
sI227
S'        exec ccode in environment'
p80
sI228
S'    except HTTP:'
p81
sI229
S'        raise'
p82
sI230
S'    except RestrictedError:'
p83
sI231
S'        # do not encapsulate (obfuscate) the original RestrictedError'
p84
sI222
S'    try:'
p85
sI223
S'        if isinstance(code, types.CodeType):'
p86
ssS'call'
p87
S"(code='\\n\\n\\ndef index():\\n    # if request.args[0] is not ...)\\n\\n\\nresponse._vars=response._caller(sendRequest)\\n', environment={'A': <class 'gluon.html.A'>, 'ANY_OF': <class 'gluon.validators.ANY_OF'>, 'ASSIGNJS': <function ASSIGNJS>, 'AppConfig': <function AppConfig>, 'Auth': <class 'gluon.tools.Auth'>, 'B': <class 'gluon.html.B'>, 'BEAUTIFY': <class 'gluon.html.BEAUTIFY'>, 'BODY': <class 'gluon.html.BODY'>, 'BR': <class 'gluon.html.BR'>, 'BUTTON': <class 'gluon.html.BUTTON'>, ...}, layer='/Users/yizhao/Documents/CMPS183/GroupOrder-WebAp...py/applications/GroupOrder/controllers/default.py')"
p88
sS'func'
p89
S'restricted'
p90
sa(dp91
g66
S'/Users/yizhao/Documents/CMPS183/GroupOrder-WebApplicationInWeb2py/applications/GroupOrder/controllers/default.py'
p92
sg68
(dp93
sg74
I289
sg75
(dp94
I278
S''
sI279
S'def call():'
p95
sI280
S'    """'
p96
sI281
S'    exposes services. for example:'
p97
sI282
S'    http://..../[app]/default/call/jsonrpc'
p98
sI283
S'    decorate with @services.jsonrpc the functions to expose'
p99
sI284
S'    supports xml, json, xmlrpc, jsonrpc, amfrpc, rss, csv'
p100
sI285
S'    """'
p101
sI286
S'    return service()'
p102
sI287
S''
ssg87
S'()'
p103
sg89
S'<module>'
p104
sa(dp105
g66
S'/Users/yizhao/Documents/CMPS183/GroupOrder-WebApplicationInWeb2py/gluon/globals.py'
p106
sg68
(dp107
S'self'
p108
S'undefined'
p109
sS'f'
S'<function sendRequest>'
p110
ssg74
I412
sg75
(dp111
I416
S"        self.generic_patterns = ['*']"
p112
sI407
S"        self.flash = ''            # used by the default view layout"
p113
sI408
S'        self.meta = Storage()      # used by web2py_ajax.html'
p114
sI409
S'        self.menu = []             # used by the default view layout'
p115
sI410
S'        self.files = []            # used by web2py_ajax.html'
p116
sI411
S'        self._vars = None'
p117
sI412
S'        self._caller = lambda f: f()'
p118
sI413
S'        self._view_environment = None'
p119
sI414
S'        self._custom_commit = None'
p120
sI415
S'        self._custom_rollback = None'
p121
ssg87
S'(f=<function sendRequest>)'
p122
sg89
S'<lambda>'
p123
sa(dp124
g66
S'/Users/yizhao/Documents/CMPS183/GroupOrder-WebApplicationInWeb2py/applications/GroupOrder/controllers/default.py'
p125
sg68
(dp126
S'db.JoinGroupRequest.groupId'
p127
S'<pydal.objects.Field object>'
p128
sS'db.JoinGroupRequest.applicantId'
p129
S'<pydal.objects.Field object>'
p130
sS').select'
p131
g109
sS'global auth'
p132
S'<gluon.tools.Auth object>'
p133
sS'db.JoinGroupRequest'
p134
S'<Table JoinGroupRequest (id,applicantId,applican...AccessId,groupCreatorId,groupCreatorName,status)>'
p135
sS'requestTableEntry'
p136
g109
sS'global db'
p137
S'<DAL uri="sqlite://storage.sqlite">'
p138
sS'groupId'
p139
S"'2'"
p140
sS'auth.user_id'
p141
S'1L'
p142
ssg74
I148
sg75
(dp143
I143
S''
sI144
S'def sendRequest():'
p144
sI145
S'    groupId = request.vars.groupId'
p145
sI146
S'    logger.info("request for " + groupId)'
p146
sI147
S'    logger.info(auth.user_id)'
p147
sI148
S'    requestTableEntry = db((db.JoinGroupRequest.applicantId == auth.user_id) & (db.JoinGroupRequest.groupId == groupId)).select().first()'
p148
sI149
S'    logger.info(requestTableEntry)'
p149
sI150
S'    if requestTableEntry is not None:'
p150
sI151
S'        logger.info("request already made!")'
p151
sI152
S'        return response.json(dict(insert=False))'
p152
ssg87
S'()'
p153
sg89
S'sendRequest'
p154
sa(dp155
g66
S'/Users/yizhao/Documents/CMPS183/GroupOrder-WebApplicationInWeb2py/gluon/packages/dal/pydal/objects.py'
p156
sg68
(dp157
S'self.query'
p158
S'<Query ((JoinGroupRequest.applicantId = 1) AND (JoinGroupRequest.groupId = 2))>'
p159
sS'adapter.select'
p160
S'<bound method SQLiteAdapter.select of <pydal.adapters.sqlite.SQLiteAdapter object>>'
p161
sS'fields'
p162
S'[<pydal.objects.Field object>, <pydal.objects.Field object>, <pydal.objects.Field object>, <pydal.objects.Field object>, <pydal.objects.Field object>, <pydal.objects.Field object>, <pydal.objects.Field object>, <pydal.objects.Field object>, <pydal.objects.Field object>]'
p163
sS'adapter'
p164
S'<pydal.adapters.sqlite.SQLiteAdapter object>'
p165
sS'attributes'
p166
g21
sS'self'
p167
S'<Set ((JoinGroupRequest.applicantId = 1) AND (JoinGroupRequest.groupId = 2))>'
p168
ssg74
I2002
sg75
(dp169
I1997
S"                                    attributes.get('join',None),"
p170
sI1998
S"                                    attributes.get('left',None),"
p171
sI1999
S"                                    attributes.get('orderby',None),"
p172
sI2000
S"                                    attributes.get('groupby',None))"
p173
sI2001
S'        fields = adapter.expand_all(fields, tablenames)'
p174
sI2002
S'        return adapter.select(self.query,fields,attributes)'
p175
sI2003
S''
sI2004
S'    def iterselect(self, *fields, **attributes):'
p176
sI2005
S'        adapter = self.db._adapter'
p177
sI2006
S'        tablenames = adapter.tables(self.query,'
p178
ssg87
S'(self=<Set ((JoinGroupRequest.applicantId = 1) AND (JoinGroupRequest.groupId = 2))>, *fields=[<pydal.objects.Field object>, <pydal.objects.Field object>, <pydal.objects.Field object>, <pydal.objects.Field object>, <pydal.objects.Field object>, <pydal.objects.Field object>, <pydal.objects.Field object>, <pydal.objects.Field object>, <pydal.objects.Field object>], **attributes={})'
p179
sg89
S'select'
p180
sa(dp181
g66
S'/Users/yizhao/Documents/CMPS183/GroupOrder-WebApplicationInWeb2py/gluon/packages/dal/pydal/adapters/sqlite.py'
p182
sg68
(dp183
S'fields'
p184
S'[<pydal.objects.Field object>, <pydal.objects.Field object>, <pydal.objects.Field object>, <pydal.objects.Field object>, <pydal.objects.Field object>, <pydal.objects.Field object>, <pydal.objects.Field object>, <pydal.objects.Field object>, <pydal.objects.Field object>]'
p185
sS'self'
p186
S'<pydal.adapters.sqlite.SQLiteAdapter object>'
p187
sS').select'
p188
S'<bound method SQLiteAdapter.select of <pydal.adapters.sqlite.SQLiteAdapter object>>'
p189
sS'attributes'
p190
g21
sS'global SQLiteAdapter'
p191
S"<class 'pydal.adapters.sqlite.SQLiteAdapter'>"
p192
sS'query'
p193
S'<Query ((JoinGroupRequest.applicantId = 1) AND (JoinGroupRequest.groupId = 2))>'
p194
sS'builtinsuper'
p195
S"<type 'super'>"
p196
ssg74
I122
sg75
(dp197
I117
S'        Note that the entire database, rather than one record, is locked'
p198
sI118
S'        (it will be locked eventually anyway by the following UPDATE).'
p199
sI119
S'        """'
p200
sI120
S"        if attributes.get('for_update', False) and not 'cache' in attributes:"
p201
sI121
S"            self.execute('BEGIN IMMEDIATE TRANSACTION;')"
p202
sI122
S'        return super(SQLiteAdapter, self).select(query, fields, attributes)'
p203
sI123
S''
sI124
S''
sI125
S'SPATIALLIBS = {'
p204
sI126
S"    'Windows':'libspatialite',"
p205
ssg87
S'(self=<pydal.adapters.sqlite.SQLiteAdapter object>, query=<Query ((JoinGroupRequest.applicantId = 1) AND (JoinGroupRequest.groupId = 2))>, fields=[<pydal.objects.Field object>, <pydal.objects.Field object>, <pydal.objects.Field object>, <pydal.objects.Field object>, <pydal.objects.Field object>, <pydal.objects.Field object>, <pydal.objects.Field object>, <pydal.objects.Field object>, <pydal.objects.Field object>], attributes={})'
p206
sg89
g180
sa(dp207
g66
S'/Users/yizhao/Documents/CMPS183/GroupOrder-WebApplicationInWeb2py/gluon/packages/dal/pydal/adapters/base.py'
p208
sg68
(dp209
S'fields'
p210
S'[<pydal.objects.Field object>, <pydal.objects.Field object>, <pydal.objects.Field object>, <pydal.objects.Field object>, <pydal.objects.Field object>, <pydal.objects.Field object>, <pydal.objects.Field object>, <pydal.objects.Field object>, <pydal.objects.Field object>]'
p211
sS'self'
p212
S'<pydal.adapters.sqlite.SQLiteAdapter object>'
p213
sS'attributes'
p214
g21
sS'self._select_aux'
p215
S'<bound method SQLiteAdapter._select_aux of <pydal.adapters.sqlite.SQLiteAdapter object>>'
p216
sS'sql'
p217
S"'SELECT  JoinGroupRequest.id, JoinGroupRequest.ap...icantId = 1) AND (JoinGroupRequest.groupId = 2));'"
p218
ssg74
I1286
sg75
(dp219
I1281
S'            return cache_model('
p220
sI1282
S'                key,'
p221
sI1283
S'                lambda self=self,args=args:self._select_aux(*args),'
p222
sI1284
S'                time_expire)'
p223
sI1285
S'        else:'
p224
sI1286
S'            return self._select_aux(sql,fields,attributes)'
p225
sI1287
S''
sI1288
S'    def iterselect(self, query, fields, attributes):'
p226
sI1289
S'        sql = self._select(query, fields, attributes)'
p227
sI1290
S"        cacheable = attributes.get('cacheable', False)"
p228
ssg87
S'(self=<pydal.adapters.sqlite.SQLiteAdapter object>, query=<Query ((JoinGroupRequest.applicantId = 1) AND (JoinGroupRequest.groupId = 2))>, fields=[<pydal.objects.Field object>, <pydal.objects.Field object>, <pydal.objects.Field object>, <pydal.objects.Field object>, <pydal.objects.Field object>, <pydal.objects.Field object>, <pydal.objects.Field object>, <pydal.objects.Field object>, <pydal.objects.Field object>], attributes={})'
p229
sg89
g180
sa(dp230
g66
S'/Users/yizhao/Documents/CMPS183/GroupOrder-WebApplicationInWeb2py/gluon/packages/dal/pydal/adapters/base.py'
p231
sg68
(dp232
S'self'
p233
S'<pydal.adapters.sqlite.SQLiteAdapter object>'
p234
sS'self.execute'
p235
S'<bound method SQLiteAdapter.execute of <pydal.adapters.sqlite.SQLiteAdapter object>>'
p236
sS'sql'
p237
S"'SELECT  JoinGroupRequest.id, JoinGroupRequest.ap...icantId = 1) AND (JoinGroupRequest.groupId = 2));'"
p238
ssg74
I1243
sg75
(dp239
I1238
S''
sI1239
S'    def _select_aux(self, sql, fields, attributes):'
p240
sI1240
S'        args_get = attributes.get'
p241
sI1241
S"        cache = args_get('cache',None)"
p242
sI1242
S'        if not cache:'
p243
sI1243
S'            self.execute(sql)'
p244
sI1244
S'            rows = self._fetchall()'
p245
sI1245
S'        else:'
p246
sI1246
S'            if isinstance(cache, dict):'
p247
sI1247
S"                cache_model = cache['model']"
p248
ssg87
S"(self=<pydal.adapters.sqlite.SQLiteAdapter object>, sql='SELECT  JoinGroupRequest.id, JoinGroupRequest.ap...icantId = 1) AND (JoinGroupRequest.groupId = 2));', fields=[<pydal.objects.Field object>, <pydal.objects.Field object>, <pydal.objects.Field object>, <pydal.objects.Field object>, <pydal.objects.Field object>, <pydal.objects.Field object>, <pydal.objects.Field object>, <pydal.objects.Field object>, <pydal.objects.Field object>], attributes={})"
p249
sg89
S'_select_aux'
p250
sa(dp251
g66
S'/Users/yizhao/Documents/CMPS183/GroupOrder-WebApplicationInWeb2py/gluon/packages/dal/pydal/adapters/base.py'
p252
sg68
(dp253
S'a'
S"('SELECT  JoinGroupRequest.id, JoinGroupRequest.ap...icantId = 1) AND (JoinGroupRequest.groupId = 2));',)"
p254
sS'self'
p255
S'<pydal.adapters.sqlite.SQLiteAdapter object>'
p256
sS'b'
g21
sS'self.log_execute'
p257
S'<bound method SQLiteAdapter.log_execute of <pydal.adapters.sqlite.SQLiteAdapter object>>'
p258
ssg74
I1378
sg75
(dp259
I1376
S''
sI1377
S'    def execute(self, *a, **b):'
p260
sI1378
S'        return self.log_execute(*a, **b)'
p261
sI1379
S''
sI1380
S'    def execute_test_query(self):'
p262
sI1381
S'        return self.execute(self.test_query)'
p263
sI1382
S''
sI1373
S'        self.db._timings.append((command,time.time()-t0))'
p264
sI1374
S'        del self.db._timings[:-TIMINGSSIZE]'
p265
sI1375
S'        return ret'
p266
ssg87
S"(self=<pydal.adapters.sqlite.SQLiteAdapter object>, *a=('SELECT  JoinGroupRequest.id, JoinGroupRequest.ap...icantId = 1) AND (JoinGroupRequest.groupId = 2));',), **b={})"
p267
sg89
S'execute'
p268
sa(dp269
g66
S'/Users/yizhao/Documents/CMPS183/GroupOrder-WebApplicationInWeb2py/gluon/packages/dal/pydal/adapters/base.py'
p270
sg68
(dp271
S'a'
S"('SELECT  JoinGroupRequest.id, JoinGroupRequest.ap...icantId = 1) AND (JoinGroupRequest.groupId = 2));',)"
p272
sS'b'
g21
sS'self'
p273
S'<pydal.adapters.sqlite.SQLiteAdapter object>'
p274
sS'ret'
p275
g109
sS'self.cursor'
p276
S'<sqlite3.Cursor object>'
p277
sS'command'
p278
S"'SELECT  JoinGroupRequest.id, JoinGroupRequest.ap...icantId = 1) AND (JoinGroupRequest.groupId = 2));'"
p279
sS'self.cursor.execute'
p280
S'<built-in method execute of sqlite3.Cursor object>'
p281
ssg74
I1372
sg75
(dp282
I1376
S''
sI1367
S'            command = self.filter_sql_command(command)'
p283
sI1368
S'        if self.db._debug:'
p284
sI1369
S"            self.db.logger.debug('SQL: %s' % command)"
p285
sI1370
S'        self.db._lastsql = command'
p286
sI1371
S'        t0 = time.time()'
p287
sI1372
S'        ret = self.cursor.execute(command, *a[1:], **b)'
p288
sI1373
S'        self.db._timings.append((command,time.time()-t0))'
p289
sI1374
S'        del self.db._timings[:-TIMINGSSIZE]'
p290
sI1375
S'        return ret'
p291
ssg87
S"(self=<pydal.adapters.sqlite.SQLiteAdapter object>, *a=('SELECT  JoinGroupRequest.id, JoinGroupRequest.ap...icantId = 1) AND (JoinGroupRequest.groupId = 2));',), **b={})"
p292
sg89
S'log_execute'
p293
sasS'pyver'
p294
S'Python 2.7.10: /System/Library/Frameworks/Python.framework/Versions/2.7/Resources/Python.app/Contents/MacOS/Python (prefix: /System/Library/Frameworks/Python.framework/Versions/2.7)'
p295
sS'session'
p296
g61
(S's\xe8\t\x00\x00<div><table><tr><td style="font-weight:bold;vertical-align:top;">auth</td><td style="vertical-align:top;">:</td><td><div><table><tr><td style="font-weight:bold;vertical-align:top;">expiration</td><td style="vertical-align:top;">:</td><td><div>3600</div></td></tr><tr><td style="font-weight:bold;vertical-align:top;">hmac_key</td><td style="vertical-align:top;">:</td><td><div>c6829cba-e6fc-4361-8e16-1b0a7f110ffd</div></td></tr><tr><td style="font-weight:bold;vertical-align:top;">last_visit</td><td style="vertical-align:top;">:</td><td><div>datetime.datetime(2015, 12, 8, 22, 30, 7, 300880)</div></td></tr><tr><td style="font-weight:bold;vertical-align:top;">remember_me</td><td style="vertical-align:top;">:</td><td><div>False</div></td></tr><tr><td style="font-weight:bold;vertical-align:top;">user</td><td style="vertical-align:top;">:</td><td><div><table><tr><td style="font-weight:bold;vertical-align:top;">email</td><td style="vertical-align:top;">:</td><td><div>zhaoyi2090@gmail.com</div></td></tr><tr><td style="font-weight:bold;vertical-align:top;">first_name</td><td style="vertical-align:top;">:</td><td><div>Yi</div></td></tr><tr><td style="font-weight:bold;vertical-align:top;">id</td><td style="vertical-align:top;">:</td><td><div>1L</div></td></tr><tr><td style="font-weight:bold;vertical-align:top;">last_name</td><td style="vertical-align:top;">:</td><td><div>Zhao</div></td></tr><tr><td style="font-weight:bold;vertical-align:top;">registration_id</td><td style="vertical-align:top;">:</td><td><div></div></td></tr><tr><td style="font-weight:bold;vertical-align:top;">registration_key</td><td style="vertical-align:top;">:</td><td><div></div></td></tr><tr><td style="font-weight:bold;vertical-align:top;">reset_password_key</td><td style="vertical-align:top;">:</td><td><div></div></td></tr></table></div></td></tr><tr><td style="font-weight:bold;vertical-align:top;">user_groups</td><td style="vertical-align:top;">:</td><td><div><table><tr><td style="font-weight:bold;vertical-align:top;">1</td><td style="vertical-align:top;">:</td><td><div>user_1</div></td></tr><tr><td style="font-weight:bold;vertical-align:top;">2</td><td style="vertical-align:top;">:</td><td><div>general</div></td></tr><tr><td style="font-weight:bold;vertical-align:top;">3</td><td style="vertical-align:top;">:</td><td><div>general</div></td></tr></table></div></td></tr></table></div></td></tr><tr><td style="font-weight:bold;vertical-align:top;">flash</td><td style="vertical-align:top;">:</td><td><div>None</div></td></tr></table></div>'
tRp297
sS'etype'
p298
S"<class 'sqlite3.OperationalError'>"
p299
sS'date'
p300
S'Tue Dec  8 22:34:11 2015'
p301
sS'response'
p302
g61
(S's"@\x00\x00<div><table><tr><td style="font-weight:bold;vertical-align:top;">body</td><td style="vertical-align:top;">:</td><td><div>&lt;cStringIO.StringO object at 0x1118c60d8&gt;</div></td></tr><tr><td style="font-weight:bold;vertical-align:top;">cookies</td><td style="vertical-align:top;">:</td><td><div><table><tr><td style="font-weight:bold;vertical-align:top;">session_id_grouporder</td><td style="vertical-align:top;">:</td><td><div>127.0.0.1-053c642d-35e2-4c85-9f28-59d0c47ca9a0<table><tr><td style="font-weight:bold;vertical-align:top;">comment</td><td style="vertical-align:top;">:</td><td><div></div></td></tr><tr><td style="font-weight:bold;vertical-align:top;">domain</td><td style="vertical-align:top;">:</td><td><div></div></td></tr><tr><td style="font-weight:bold;vertical-align:top;">expires</td><td style="vertical-align:top;">:</td><td><div></div></td></tr><tr><td style="font-weight:bold;vertical-align:top;">httponly</td><td style="vertical-align:top;">:</td><td><div></div></td></tr><tr><td style="font-weight:bold;vertical-align:top;">max-age</td><td style="vertical-align:top;">:</td><td><div></div></td></tr><tr><td style="font-weight:bold;vertical-align:top;">path</td><td style="vertical-align:top;">:</td><td><div>/</div></td></tr><tr><td style="font-weight:bold;vertical-align:top;">secure</td><td style="vertical-align:top;">:</td><td><div></div></td></tr><tr><td style="font-weight:bold;vertical-align:top;">version</td><td style="vertical-align:top;">:</td><td><div></div></td></tr></table></div></td></tr></table></div></td></tr><tr><td style="font-weight:bold;vertical-align:top;">delimiters</td><td style="vertical-align:top;">:</td><td><div><table><tr><td><div>{{</div></td></tr><tr><td><div>}}</div></td></tr></table></div></td></tr><tr><td style="font-weight:bold;vertical-align:top;">files</td><td style="vertical-align:top;">:</td><td><div><table></table></div></td></tr><tr><td style="font-weight:bold;vertical-align:top;">flash</td><td style="vertical-align:top;">:</td><td><div></div></td></tr><tr><td style="font-weight:bold;vertical-align:top;">form_label_separator</td><td style="vertical-align:top;">:</td><td><div></div></td></tr><tr><td style="font-weight:bold;vertical-align:top;">formstyle</td><td style="vertical-align:top;">:</td><td><div>bootstrap3_inline</div></td></tr><tr><td style="font-weight:bold;vertical-align:top;">generic_patterns</td><td style="vertical-align:top;">:</td><td><div><table><tr><td><div>*</div></td></tr></table></div></td></tr><tr><td style="font-weight:bold;vertical-align:top;">google_analytics_id</td><td style="vertical-align:top;">:</td><td><div>None</div></td></tr><tr><td style="font-weight:bold;vertical-align:top;">headers</td><td style="vertical-align:top;">:</td><td><div><table><tr><td style="font-weight:bold;vertical-align:top;">X-Powered-By</td><td style="vertical-align:top;">:</td><td><div>web2py</div></td></tr></table></div></td></tr><tr><td style="font-weight:bold;vertical-align:top;">logo</td><td style="vertical-align:top;">:</td><td><div><a class="navbar-brand" href="http://www.web2py.com/" id="web2py-logo"><b>web<span>2</span>py</b>&trade;&nbsp;</a></div></td></tr><tr><td style="font-weight:bold;vertical-align:top;">menu</td><td style="vertical-align:top;">:</td><td><div><table><tr><td><div><table><tr><td><div>Home</div></td></tr><tr><td><div>False</div></td></tr><tr><td><div>/GroupOrder/default/index</div></td></tr><tr><td><div><table></table></div></td></tr></table></div></td></tr><tr><td><div><table><tr><td><div>My Sites</div></td></tr><tr><td><div>False</div></td></tr><tr><td><div>/admin/default/site</div></td></tr></table></div></td></tr><tr><td><div><table><tr><td><div>This App</div></td></tr><tr><td><div>False</div></td></tr><tr><td><div>#</div></td></tr><tr><td><div><table><tr><td><div><table><tr><td><div>Design</div></td></tr><tr><td><div>False</div></td></tr><tr><td><div>/admin/default/design/GroupOrder</div></td></tr></table></div></td></tr><tr><td><div><li class="divider"></li></div></td></tr><tr><td><div><table><tr><td><div>Controller</div></td></tr><tr><td><div>False</div></td></tr><tr><td><div>/admin/default/edit/GroupOrder/controllers/default.py</div></td></tr></table></div></td></tr><tr><td><div><table><tr><td><div>View</div></td></tr><tr><td><div>False</div></td></tr><tr><td><div>/admin/default/edit/GroupOrder/views/default/sendRequest.html</div></td></tr></table></div></td></tr><tr><td><div><table><tr><td><div>DB Model</div></td></tr><tr><td><div>False</div></td></tr><tr><td><div>/admin/default/edit/GroupOrder/models/db.py</div></td></tr></table></div></td></tr><tr><td><div><table><tr><td><div>Menu Model</div></td></tr><tr><td><div>False</div></td></tr><tr><td><div>/admin/default/edit/GroupOrder/models/menu.py</div></td></tr></table></div></td></tr><tr><td><div><table><tr><td><div>Config.ini</div></td></tr><tr><td><div>False</div></td></tr><tr><td><div>/admin/default/edit/GroupOrder/private/appconfig.ini</div></td></tr></table></div></td></tr><tr><td><div><table><tr><td><div>Layout</div></td></tr><tr><td><div>False</div></td></tr><tr><td><div>/admin/default/edit/GroupOrder/views/layout.html</div></td></tr></table></div></td></tr><tr><td><div><table><tr><td><div>Stylesheet</div></td></tr><tr><td><div>False</div></td></tr><tr><td><div>/admin/default/edit/GroupOrder/static/css/web2py-bootstrap3.css</div></td></tr></table></div></td></tr><tr><td><div><table><tr><td><div>Database</div></td></tr><tr><td><div>False</div></td></tr><tr><td><div>/GroupOrder/appadmin/index</div></td></tr></table></div></td></tr><tr><td><div><table><tr><td><div>Errors</div></td></tr><tr><td><div>False</div></td></tr><tr><td><div>/admin/default/errors/GroupOrder</div></td></tr></table></div></td></tr><tr><td><div><table><tr><td><div>About</div></td></tr><tr><td><div>False</div></td></tr><tr><td><div>/admin/default/about/GroupOrder</div></td></tr></table></div></td></tr></table></div></td></tr></table></div></td></tr><tr><td><div><table><tr><td><div>web2py.com</div></td></tr><tr><td><div>False</div></td></tr><tr><td><div>#</div></td></tr><tr><td><div><table><tr><td><div><table><tr><td><div>Download</div></td></tr><tr><td><div>False</div></td></tr><tr><td><div>http://www.web2py.com/examples/default/download</div></td></tr></table></div></td></tr><tr><td><div><table><tr><td><div>Support</div></td></tr><tr><td><div>False</div></td></tr><tr><td><div>http://www.web2py.com/examples/default/support</div></td></tr></table></div></td></tr><tr><td><div><table><tr><td><div>Demo</div></td></tr><tr><td><div>False</div></td></tr><tr><td><div>http://web2py.com/demo_admin</div></td></tr></table></div></td></tr><tr><td><div><table><tr><td><div>Quick Examples</div></td></tr><tr><td><div>False</div></td></tr><tr><td><div>http://web2py.com/examples/default/examples</div></td></tr></table></div></td></tr><tr><td><div><table><tr><td><div>FAQ</div></td></tr><tr><td><div>False</div></td></tr><tr><td><div>http://web2py.com/AlterEgo</div></td></tr></table></div></td></tr><tr><td><div><table><tr><td><div>Videos</div></td></tr><tr><td><div>False</div></td></tr><tr><td><div>http://www.web2py.com/examples/default/videos/</div></td></tr></table></div></td></tr><tr><td><div><table><tr><td><div>Free Applications</div></td></tr><tr><td><div>False</div></td></tr><tr><td><div>http://web2py.com/appliances</div></td></tr></table></div></td></tr><tr><td><div><table><tr><td><div>Plugins</div></td></tr><tr><td><div>False</div></td></tr><tr><td><div>http://web2py.com/plugins</div></td></tr></table></div></td></tr><tr><td><div><table><tr><td><div>Recipes</div></td></tr><tr><td><div>False</div></td></tr><tr><td><div>http://web2pyslices.com/</div></td></tr></table></div></td></tr></table></div></td></tr></table></div></td></tr><tr><td><div><table><tr><td><div>Documentation</div></td></tr><tr><td><div>False</div></td></tr><tr><td><div>#</div></td></tr><tr><td><div><table><tr><td><div><table><tr><td><div>Online book</div></td></tr><tr><td><div>False</div></td></tr><tr><td><div>http://www.web2py.com/book</div></td></tr></table></div></td></tr><tr><td><div><li class="divider"></li></div></td></tr><tr><td><div><table><tr><td><div>Preface</div></td></tr><tr><td><div>False</div></td></tr><tr><td><div>http://www.web2py.com/book/default/chapter/00</div></td></tr></table></div></td></tr><tr><td><div><table><tr><td><div>Introduction</div></td></tr><tr><td><div>False</div></td></tr><tr><td><div>http://www.web2py.com/book/default/chapter/01</div></td></tr></table></div></td></tr><tr><td><div><table><tr><td><div>Python</div></td></tr><tr><td><div>False</div></td></tr><tr><td><div>http://www.web2py.com/book/default/chapter/02</div></td></tr></table></div></td></tr><tr><td><div><table><tr><td><div>Overview</div></td></tr><tr><td><div>False</div></td></tr><tr><td><div>http://www.web2py.com/book/default/chapter/03</div></td></tr></table></div></td></tr><tr><td><div><table><tr><td><div>The Core</div></td></tr><tr><td><div>False</div></td></tr><tr><td><div>http://www.web2py.com/book/default/chapter/04</div></td></tr></table></div></td></tr><tr><td><div><table><tr><td><div>The Views</div></td></tr><tr><td><div>False</div></td></tr><tr><td><div>http://www.web2py.com/book/default/chapter/05</div></td></tr></table></div></td></tr><tr><td><div><table><tr><td><div>Database</div></td></tr><tr><td><div>False</div></td></tr><tr><td><div>http://www.web2py.com/book/default/chapter/06</div></td></tr></table></div></td></tr><tr><td><div><table><tr><td><div>Forms and Validators</div></td></tr><tr><td><div>False</div></td></tr><tr><td><div>http://www.web2py.com/book/default/chapter/07</div></td></tr></table></div></td></tr><tr><td><div><table><tr><td><div>Email and SMS</div></td></tr><tr><td><div>False</div></td></tr><tr><td><div>http://www.web2py.com/book/default/chapter/08</div></td></tr></table></div></td></tr><tr><td><div><table><tr><td><div>Access Control</div></td></tr><tr><td><div>False</div></td></tr><tr><td><div>http://www.web2py.com/book/default/chapter/09</div></td></tr></table></div></td></tr><tr><td><div><table><tr><td><div>Services</div></td></tr><tr><td><div>False</div></td></tr><tr><td><div>http://www.web2py.com/book/default/chapter/10</div></td></tr></table></div></td></tr><tr><td><div><table><tr><td><div>Ajax Recipes</div></td></tr><tr><td><div>False</div></td></tr><tr><td><div>http://www.web2py.com/book/default/chapter/11</div></td></tr></table></div></td></tr><tr><td><div><table><tr><td><div>Components and Plugins</div></td></tr><tr><td><div>False</div></td></tr><tr><td><div>http://www.web2py.com/book/default/chapter/12</div></td></tr></table></div></td></tr><tr><td><div><table><tr><td><div>Deployment Recipes</div></td></tr><tr><td><div>False</div></td></tr><tr><td><div>http://www.web2py.com/book/default/chapter/13</div></td></tr></table></div></td></tr><tr><td><div><table><tr><td><div>Other Recipes</div></td></tr><tr><td><div>False</div></td></tr><tr><td><div>http://www.web2py.com/book/default/chapter/14</div></td></tr></table></div></td></tr><tr><td><div><table><tr><td><div>Helping web2py</div></td></tr><tr><td><div>False</div></td></tr><tr><td><div>http://www.web2py.com/book/default/chapter/15</div></td></tr></table></div></td></tr><tr><td><div><table><tr><td><div>Buy web2py\'s book</div></td></tr><tr><td><div>False</div></td></tr><tr><td><div>http://stores.lulu.com/web2py</div></td></tr></table></div></td></tr></table></div></td></tr></table></div></td></tr><tr><td><div><table><tr><td><div>Community</div></td></tr><tr><td><div>False</div></td></tr><tr><td><div>None</div></td></tr><tr><td><div><table><tr><td><div><table><tr><td><div>Groups</div></td></tr><tr><td><div>False</div></td></tr><tr><td><div>http://www.web2py.com/examples/default/usergroups</div></td></tr></table></div></td></tr><tr><td><div><table><tr><td><div>Twitter</div></td></tr><tr><td><div>False</div></td></tr><tr><td><div>http://twitter.com/web2py</div></td></tr></table></div></td></tr><tr><td><div><table><tr><td><div>Live Chat</div></td></tr><tr><td><div>False</div></td></tr><tr><td><div>http://webchat.freenode.net/?channels=web2py</div></td></tr></table></div></td></tr></table></div></td></tr></table></div></td></tr></table></div></td></tr><tr><td style="font-weight:bold;vertical-align:top;">meta</td><td style="vertical-align:top;">:</td><td><div><table><tr><td style="font-weight:bold;vertical-align:top;">author</td><td style="vertical-align:top;">:</td><td><div>Your Name &lt;you@example.com&gt;</div></td></tr><tr><td style="font-weight:bold;vertical-align:top;">description</td><td style="vertical-align:top;">:</td><td><div>a cool new app</div></td></tr><tr><td style="font-weight:bold;vertical-align:top;">generator</td><td style="vertical-align:top;">:</td><td><div>Web2py Web Framework</div></td></tr><tr><td style="font-weight:bold;vertical-align:top;">keywords</td><td style="vertical-align:top;">:</td><td><div>web2py, python, framework</div></td></tr></table></div></td></tr><tr><td style="font-weight:bold;vertical-align:top;">models_to_run</td><td style="vertical-align:top;">:</td><td><div><table><tr><td><div>^\\w+\\.py$</div></td></tr><tr><td><div>^default/\\w+\\.py$</div></td></tr><tr><td><div>^default/sendRequest/\\w+\\.py$</div></td></tr></table></div></td></tr><tr><td style="font-weight:bold;vertical-align:top;">postprocessing</td><td style="vertical-align:top;">:</td><td><div><table></table></div></td></tr><tr><td style="font-weight:bold;vertical-align:top;">session_client</td><td style="vertical-align:top;">:</td><td><div>127.0.0.1</div></td></tr><tr><td style="font-weight:bold;vertical-align:top;">session_cookie_compression_level</td><td style="vertical-align:top;">:</td><td><div>None</div></td></tr><tr><td style="font-weight:bold;vertical-align:top;">session_cookie_expires</td><td style="vertical-align:top;">:</td><td><div>None</div></td></tr><tr><td style="font-weight:bold;vertical-align:top;">session_cookie_key</td><td style="vertical-align:top;">:</td><td><div>None</div></td></tr><tr><td style="font-weight:bold;vertical-align:top;">session_data_name</td><td style="vertical-align:top;">:</td><td><div>session_data_grouporder</div></td></tr><tr><td style="font-weight:bold;vertical-align:top;">session_file</td><td style="vertical-align:top;">:</td><td><div>&lt;open file &#x27;/Users/yizhao/Documents/CMPS183/GroupOrder-WebApplicationInWeb2py/applications/GroupOrder/sessions/123/1c1/127.0.0.1-053c642d-35e2-4c85-9f28-59d0c47ca9a0&#x27;, mode &#x27;rb+&#x27; at 0x111a44ed0&gt;</div></td></tr><tr><td style="font-weight:bold;vertical-align:top;">session_filename</td><td style="vertical-align:top;">:</td><td><div>/Users/yizhao/Documents/CMPS183/GroupOrder-WebApplicationInWeb2py/applications/GroupOrder/sessions/127.0.0.1-053c642d-35e2-4c85-9f28-59d0c47ca9a0</div></td></tr><tr><td style="font-weight:bold;vertical-align:top;">session_hash</td><td style="vertical-align:top;">:</td><td><div>2ea068402120bc5f88904b2ab8402c30</div></td></tr><tr><td style="font-weight:bold;vertical-align:top;">session_id</td><td style="vertical-align:top;">:</td><td><div>127.0.0.1-053c642d-35e2-4c85-9f28-59d0c47ca9a0</div></td></tr><tr><td style="font-weight:bold;vertical-align:top;">session_id_name</td><td style="vertical-align:top;">:</td><td><div>session_id_grouporder</div></td></tr><tr><td style="font-weight:bold;vertical-align:top;">session_locked</td><td style="vertical-align:top;">:</td><td><div>True</div></td></tr><tr><td style="font-weight:bold;vertical-align:top;">session_masterapp</td><td style="vertical-align:top;">:</td><td><div>GroupOrder</div></td></tr><tr><td style="font-weight:bold;vertical-align:top;">session_new</td><td style="vertical-align:top;">:</td><td><div>False</div></td></tr><tr><td style="font-weight:bold;vertical-align:top;">session_storage_type</td><td style="vertical-align:top;">:</td><td><div>file</div></td></tr><tr><td style="font-weight:bold;vertical-align:top;">status</td><td style="vertical-align:top;">:</td><td><div>200</div></td></tr><tr><td style="font-weight:bold;vertical-align:top;">subtitle</td><td style="vertical-align:top;">:</td><td><div></div></td></tr><tr><td style="font-weight:bold;vertical-align:top;">title</td><td style="vertical-align:top;">:</td><td><div>Grouporder</div></td></tr><tr><td style="font-weight:bold;vertical-align:top;">view</td><td style="vertical-align:top;">:</td><td><div>default/sendRequest.html</div></td></tr></table></div>'
tRp303
sS'locals'
p304
(dp305
S'a'
S"('SELECT  JoinGroupRequest.id, JoinGroupRequest.ap...icantId = 1) AND (JoinGroupRequest.groupId = 2));',)"
p306
sS'self'
p307
S'<pydal.adapters.sqlite.SQLiteAdapter object>'
p308
sS'b'
g21
sS'command'
p309
S"'SELECT  JoinGroupRequest.id, JoinGroupRequest.ap...icantId = 1) AND (JoinGroupRequest.groupId = 2));'"
p310
sS't0'
p311
S'1449642851.150357'
p312
sssS'traceback'
p313
S'Traceback (most recent call last):\n  File "/Users/yizhao/Documents/CMPS183/GroupOrder-WebApplicationInWeb2py/gluon/restricted.py", line 227, in restricted\n    exec ccode in environment\n  File "/Users/yizhao/Documents/CMPS183/GroupOrder-WebApplicationInWeb2py/applications/GroupOrder/controllers/default.py", line 289, in <module>\n  File "/Users/yizhao/Documents/CMPS183/GroupOrder-WebApplicationInWeb2py/gluon/globals.py", line 412, in <lambda>\n    self._caller = lambda f: f()\n  File "/Users/yizhao/Documents/CMPS183/GroupOrder-WebApplicationInWeb2py/applications/GroupOrder/controllers/default.py", line 148, in sendRequest\n    requestTableEntry = db((db.JoinGroupRequest.applicantId == auth.user_id) & (db.JoinGroupRequest.groupId == groupId)).select().first()\n  File "/Users/yizhao/Documents/CMPS183/GroupOrder-WebApplicationInWeb2py/gluon/packages/dal/pydal/objects.py", line 2002, in select\n    return adapter.select(self.query,fields,attributes)\n  File "/Users/yizhao/Documents/CMPS183/GroupOrder-WebApplicationInWeb2py/gluon/packages/dal/pydal/adapters/sqlite.py", line 122, in select\n    return super(SQLiteAdapter, self).select(query, fields, attributes)\n  File "/Users/yizhao/Documents/CMPS183/GroupOrder-WebApplicationInWeb2py/gluon/packages/dal/pydal/adapters/base.py", line 1286, in select\n    return self._select_aux(sql,fields,attributes)\n  File "/Users/yizhao/Documents/CMPS183/GroupOrder-WebApplicationInWeb2py/gluon/packages/dal/pydal/adapters/base.py", line 1243, in _select_aux\n    self.execute(sql)\n  File "/Users/yizhao/Documents/CMPS183/GroupOrder-WebApplicationInWeb2py/gluon/packages/dal/pydal/adapters/base.py", line 1378, in execute\n    return self.log_execute(*a, **b)\n  File "/Users/yizhao/Documents/CMPS183/GroupOrder-WebApplicationInWeb2py/gluon/packages/dal/pydal/adapters/base.py", line 1372, in log_execute\n    ret = self.cursor.execute(command, *a[1:], **b)\nOperationalError: no such table: JoinGroupRequest\n'
p314
s.